(dp0
I1920
(dp1
S'va'
p2
(dp3
S'Richmond'
p4
(lp5
S'riva'
p6
asS'Norfolk'
p7
(lp8
S'nova'
p9
assS'co'
p10
(dp11
S'Pueblo'
p12
(lp13
S'puco'
p14
asS'Denver'
p15
(lp16
S'deco'
p17
assS'ca'
p18
(dp19
S'LosAngeles'
p20
(lp21
S'laca'
p22
asS'SanFrancisco'
p23
(lp24
S'sfca'
p25
asS'SanDiego'
p26
(lp27
S'sdca'
p28
asS'Sacramento'
p29
(lp30
S'scca'
p31
asS'SanJose'
p32
(lp33
S'sjca'
p34
asS'Pasadena'
p35
(lp36
S'paca'
p37
asS'Berkeley'
p38
(lp39
S'beca'
p40
asS'Glendale'
p41
(lp42
S'glca'
p43
asS'Oakland'
p44
(lp45
S'oaca'
p46
asS'LongBeach'
p47
(lp48
S'lbca'
p49
assS'al'
p50
(dp51
S'Mobile'
p52
(lp53
S'moal'
p54
asS'Birmingham'
p55
(lp56
S'bial'
p57
asS'Montgomery'
p58
(lp59
S'mnal'
p60
assS'ar'
p61
(dp62
S'LittleRock'
p63
(lp64
S'lrar'
p65
assS'il'
p66
(dp67
S'Rockford'
p68
(lp69
S'roil'
p70
asS'EastStLouis'
p71
(lp72
S'esil'
p73
asS'Chicago'
p74
(lp75
S'chil'
p76
asS'Aurora'
p77
(lp78
S'auil'
p79
asS'Cicero'
p80
(lp81
S'ciil'
p82
asS'Evanston'
p83
(lp84
S'evil'
p85
asS'Joliet'
p86
(lp87
S'joil'
p88
asS'OakPark'
p89
(lp90
S'opil'
p91
asS'Peoria'
p92
(lp93
S'peil'
p94
asS'Springfield'
p95
(lp96
S'spil'
p97
asS'Quincy'
p98
(lp99
S'quil'
p100
assS'ga'
p101
(dp102
S'Savannah'
p103
(lp104
S'saga'
p105
asS'Atlanta'
p106
(lp107
S'a1ga'
p108
aS'a2ga'
p109
asS'Augusta'
p110
(lp111
S'auga'
p112
assS'in'
p113
(dp114
S'Indianapolis'
p115
(lp116
S'inin'
p117
asS'FortWayne'
p118
(lp119
S'fwin'
p120
asS'Hammond'
p121
(lp122
S'hain'
p123
asS'SouthBend'
p124
(lp125
S'sbin'
p126
asS'Gary'
p127
(lp128
S'gain'
p129
asS'Evansville'
p130
(lp131
S'evin'
p132
asS'TerreHaute'
p133
(lp134
S'thin'
p135
assS'ia'
p136
(dp137
S'DesMoines'
p138
(lp139
S'dmia'
p140
asS'SiouxCity'
p141
(lp142
S'siia'
p143
asS'Davenport'
p144
(lp145
S'daia'
p146
asS'Dubuque'
p147
(lp148
S'duia'
p149
assS'az'
p150
(dp151
S'Phoenix'
p152
(lp153
S'phaz'
p154
assS'ct'
p155
(dp156
S'Bridgeport'
p157
(lp158
S'brct'
p159
asS'Waterbury'
p160
(lp161
S'wact'
p162
asS'Hartford'
p163
(lp164
S'hact'
p165
aS'wrct'
p166
asS'Meriden'
p167
(lp168
S'mect'
p169
asS'NewBritain'
p170
(lp171
S'nbct'
p172
asS'NewHaven'
p173
(lp174
S'nhct'
p175
assS'nh'
p176
(dp177
S'Manchester'
p178
(lp179
S'manh'
p180
assS'nj'
p181
(dp182
S'Trenton'
p183
(lp184
S'trnj'
p185
asS'AtlanticCity'
p186
(lp187
S'acnj'
p188
asS'JerseyCity'
p189
(lp190
S'jcnj'
p191
asS'Bayonne'
p192
(lp193
S'banj'
p194
asS'Passaic'
p195
(lp196
S'psnj'
p197
asS'Newark'
p198
(lp199
S'nenj'
p200
asS'Camden'
p201
(lp202
S'canj'
p203
asS'Paterson'
p204
(lp205
S'panj'
p206
asS'Hoboken'
p207
(lp208
S'honj'
p209
asS'EastOrange'
p210
(lp211
S'eonj'
p212
asS'Elizabeth'
p213
(lp214
S'elnj'
p215
assS'tx'
p216
(dp217
S'Galveston'
p218
(lp219
S'gatx'
p220
asS'Houston'
p221
(lp222
S'hotx'
p223
asS'Dallas'
p224
(lp225
S'datx'
p226
asS'SanAntonio'
p227
(lp228
S'satx'
p229
asS'ElPaso'
p230
(lp231
S'eptx'
p232
asS'FortWorth'
p233
(lp234
S'fwtx'
p235
asS'Austin'
p236
(lp237
S'autx'
p238
assS'la'
p239
(dp240
S'Shreveport'
p241
(lp242
S'shla'
p243
asS'NewOrleans'
p244
(lp245
S'nola'
p246
assS'nc'
p247
(dp248
S'Winston-Salem'
p249
(lp250
sS'Charlotte'
p251
(lp252
S'chnc'
p253
assS'ne'
p254
(dp255
S'Lincoln'
p256
(lp257
S'line'
p258
asS'Omaha'
p259
(lp260
S'omne'
p261
assS'tn'
p262
(dp263
S'Chattanooga'
p264
(lp265
S'chtn'
p266
asS'Knoxville'
p267
(lp268
S'kntn'
p269
asS'Memphis'
p270
(lp271
S'metn'
p272
asS'Nashville'
p273
(lp274
S'natn'
p275
assS'ny'
p276
(dp277
S'Albany'
p278
(lp279
S'alny'
p280
asS'Rochester'
p281
(lp282
S'rony'
p283
asS'Manhattan'
p284
(lp285
S'many'
p286
asS'NewYork'
p287
(lp288
sS'Poughkeepsie'
p289
(lp290
S'pony'
p291
asS'MountVernon'
p292
(lp293
sS'Brooklyn'
p294
(lp295
S'bkny'
p296
asS'Richmond'
p297
(lp298
sS'Auburn'
p299
(lp300
S'auny'
p301
asS'Elmira'
p302
(lp303
S'elny'
p304
asS'Yonkers'
p305
(lp306
S'yony'
p307
asS'Troy'
p308
(lp309
S'trny'
p310
asS'NiagaraFalls'
p311
(lp312
S'nfny'
p313
asS'Binghamton'
p314
(lp315
S'biny'
p316
asS'Utica'
p317
(lp318
S'utny'
p319
asS'Bronx'
p320
(lp321
S'bxny'
p322
asS'Queens'
p323
(lp324
S'quny'
p325
asS'Buffalo'
p326
(lp327
S'buny'
p328
asS'Schenectady'
p329
(lp330
S'scny'
p331
asS'Syracuse'
p332
(lp333
S'syny'
p334
assS'pa'
p335
(dp336
S'Lancaster'
p337
(lp338
S'lapa'
p339
asS'Reading'
p340
(lp341
S'repa'
p342
asS'Pittsburgh'
p343
(lp344
S'pipa'
p345
asS'Allentown'
p346
(lp347
S'alpa'
p348
asS'Philadelphia'
p349
(lp350
S'phpa'
p351
asS'McKeesport'
p352
(lp353
S'mcpa'
p354
asS'Harrisburg'
p355
(lp356
S'hapa'
p357
asS'Altoona'
p358
(lp359
S'atpa'
p360
asS'Wilkes-Barre'
p361
(lp362
S'wipa'
p363
asS'Chester'
p364
(lp365
S'chpa'
p366
asS'NewCastle'
p367
(lp368
S'ncpa'
p369
asS'Scranton'
p370
(lp371
S'scpa'
p372
asS'Erie'
p373
(lp374
S'erpa'
p375
asS'Williamsport'
p376
(lp377
S'wlpa'
p378
asS'York'
p379
(lp380
S'yopa'
p381
asS'Johnstown'
p382
(lp383
S'jopa'
p384
assS'ri'
p385
(dp386
S'Woonsocket'
p387
(lp388
S'wori'
p389
asS'Providence'
p390
(lp391
S'epri'
p392
aS'prri'
p393
asS'Pawtucket'
p394
(lp395
S'pari'
p396
assS'wa'
p397
(dp398
S'Seattle'
p399
(lp400
S'sewa'
p401
asS'Spokane'
p402
(lp403
S'spwa'
p404
asS'Tacoma'
p405
(lp406
S'tawa'
p407
assS'de'
p408
(dp409
S'Wilmington'
p410
(lp411
S'wide'
p412
assS'dc'
p413
(dp414
S'Washington'
p415
(lp416
S'wadc'
p417
assS'wi'
p418
(dp419
S'LaCrosse'
p420
(lp421
sS'Superior'
p422
(lp423
S'suwi'
p424
asS'Madison'
p425
(lp426
S'mawi'
p427
asS'Oshkosh'
p428
(lp429
S'oswi'
p430
asS'Milwaukee'
p431
(lp432
S'miwi'
p433
asS'Racine'
p434
(lp435
S'rawi'
p436
assS'wv'
p437
(dp438
S'Charleston'
p439
(lp440
S'chwv'
p441
asS'Huntington'
p442
(lp443
S'huwv'
p444
assS'ok'
p445
(dp446
S'Tulsa'
p447
(lp448
S'tuok'
p449
asS'OklahomaCity'
p450
(lp451
S'ocok'
p452
assS'fl'
p453
(dp454
S'Miami'
p455
(lp456
S'mifl'
p457
asS'Jacksonville'
p458
(lp459
S'jafl'
p460
asS'Tampa'
p461
(lp462
S'tafl'
p463
assS'me'
p464
(dp465
S'Portland'
p466
(lp467
S'pome'
p468
assS'md'
p469
(dp470
S'Baltimore'
p471
(lp472
S'bamd'
p473
assS'ma'
p474
(dp475
S'Lowell'
p476
(lp477
S'loma'
p478
asS'Lynn'
p479
(lp480
S'lyma'
p481
asS'Cambridge'
p482
(lp483
S'cama'
p484
asS'Quincy'
p485
(lp486
S'quma'
p487
asS'Springfield'
p488
(lp489
S'spma'
p490
asS'Lawrence'
p491
(lp492
S'lama'
p493
asS'Taunton'
p494
(lp495
S'tama'
p496
asS'Boston'
p497
(lp498
S'boma'
p499
asS'Newton'
p500
(lp501
S'nema'
p502
asS'Haverhill'
p503
(lp504
S'hama'
p505
asS'Worcester'
p506
(lp507
S'woma'
p508
asS'Holyoke'
p509
(lp510
S'homa'
p511
asS'Salem'
p512
(lp513
S'sama'
p514
asS'Malden'
p515
(lp516
S'mama'
p517
asS'FallRiver'
p518
(lp519
S'frma'
p520
asS'Brockton'
p521
(lp522
S'bcma'
p523
asS'Somerville'
p524
(lp525
S'soma'
p526
asS'Fitchburg'
p527
(lp528
S'fima'
p529
asS'Chelsea'
p530
(lp531
S'chma'
p532
asS'NewBedford'
p533
(lp534
S'nbma'
p535
assS'oh'
p536
(dp537
S'Columbus'
p538
(lp539
S'cooh'
p540
asS'Cincinnati'
p541
(lp542
S'cioh'
p543
asS'Lakewood'
p544
(lp545
S'laoh'
p546
asS'Dayton'
p547
(lp548
S'daoh'
p549
asS'Toledo'
p550
(lp551
S'tooh'
p552
asS'Canton'
p553
(lp554
S'caoh'
p555
asS'Youngstown'
p556
(lp557
S'yooh'
p558
asS'Cleveland'
p559
(lp560
S'cloh'
p561
aS'choh'
p562
aS'ecoh'
p563
asS'Akron'
p564
(lp565
S'akoh'
p566
asS'Springfield'
p567
(lp568
S'spoh'
p569
assS'ut'
p570
(dp571
S'SaltLakeCity'
p572
(lp573
S'slut'
p574
assS'mo'
p575
(dp576
S'StLouis'
p577
(lp578
S'slmo'
p579
asS'Joplin'
p580
(lp581
S'j1mo'
p582
aS'j2mo'
p583
asS'StJoseph'
p584
(lp585
S'sjmo'
p586
asS'KansasCity'
p587
(lp588
S'kcmo'
p589
assS'mn'
p590
(dp591
S'StPaul'
p592
(lp593
S'spmn'
p594
asS'Duluth'
p595
(lp596
S'dumn'
p597
assS'mi'
p598
(dp599
S'Pontiac'
p600
(lp601
S'pomi'
p602
asS'Detroit'
p603
(lp604
S'demi'
p605
asS'Lansing'
p606
(lp607
S'lami'
p608
asS'Flint'
p609
(lp610
S'flmi'
p611
asS'GrandRapids'
p612
(lp613
S'grmi'
p614
asS'BayCity'
p615
(lp616
S'bcmi'
p617
asS'Saginaw'
p618
(lp619
S'sami'
p620
assS'ks'
p621
(dp622
S'Wichita'
p623
(lp624
S'wiks'
p625
asS'KansasCity'
p626
(lp627
S'kcks'
p628
asS'Topeka'
p629
(lp630
S'toks'
p631
assS'mt'
p632
(dp633
S'Butte'
p634
(lp635
S'bumt'
p636
assS'sc'
p637
(dp638
S'Charleston'
p639
(lp640
S'chsc'
p641
assS'ky'
p642
(dp643
S'Covington'
p644
(lp645
S'coky'
p646
asS'Newport'
p647
(lp648
S'neky'
p649
asS'Louisville'
p650
(lp651
S'luky'
p652
assS'or'
p653
(dp654
S'Portland'
p655
(lp656
S'poor'
p657
asssI1940
(dp658
g2
(dp659
g4
(lp660
S'riva'
p661
asg7
(lp662
S'nova'
p663
assg10
(dp664
g12
(lp665
S'puco'
p666
asg15
(lp667
S'deco'
p668
assg18
(dp669
S'LosAngeles'
p670
(lp671
S'laca'
p672
asS'SanFrancisco'
p673
(lp674
S'sfca'
p675
asS'SanDiego'
p676
(lp677
S'sdca'
p678
asg29
(lp679
S'scca'
p680
asS'SanJose'
p681
(lp682
S'sjca'
p683
asg35
(lp684
S'paca'
p685
aS's5ca'
p686
asg38
(lp687
S'beca'
p688
asg41
(lp689
S'glca'
p690
asg44
(lp691
S'oaca'
p692
asS'LongBeach'
p693
(lp694
S'lbca'
p695
assg50
(dp696
g52
(lp697
S'moal'
p698
asg55
(lp699
S'bial'
p700
asg58
(lp701
S'mnal'
p702
assg61
(dp703
S'LittleRock'
p704
(lp705
S'lrar'
p706
assg66
(dp707
g68
(lp708
S'roil'
p709
asS'EastStLouis'
p710
(lp711
S'esil'
p712
asg74
(lp713
S'chil'
p714
aS'ceil'
p715
aS'ncil'
p716
asg77
(lp717
S'auil'
p718
asg80
(lp719
S'ciil'
p720
asg83
(lp721
S'evil'
p722
asg86
(lp723
S'joil'
p724
asS'OakPark'
p725
(lp726
S'opil'
p727
asg92
(lp728
S'peil'
p729
asg95
(lp730
S'spil'
p731
asg98
(lp732
S'quil'
p733
assg101
(dp734
g103
(lp735
S'saga'
p736
asg106
(lp737
S'atga'
p738
asg110
(lp739
S'auga'
p740
assg113
(dp741
g115
(lp742
S'inin'
p743
asS'FortWayne'
p744
(lp745
S'fwin'
p746
asg121
(lp747
S'hain'
p748
asS'SouthBend'
p749
(lp750
S'sbin'
p751
asg127
(lp752
S'gain'
p753
asg130
(lp754
S'evin'
p755
asS'TerreHaute'
p756
(lp757
S'thin'
p758
assg136
(dp759
S'DesMoines'
p760
(lp761
S'dmia'
p762
asS'SiouxCity'
p763
(lp764
S'scia'
p765
asg144
(lp766
S'daia'
p767
asg147
(lp768
S'duia'
p769
assg150
(dp770
g152
(lp771
S'phaz'
p772
assg155
(dp773
g157
(lp774
S'brct'
p775
asg160
(lp776
S'wact'
p777
asg163
(lp778
S'ehct'
p779
aS'hact'
p780
aS'wrct'
p781
asg167
(lp782
S'mect'
p783
asS'NewBritain'
p784
(lp785
S'nbct'
p786
asS'NewHaven'
p787
(lp788
S'nhct'
p789
assg176
(dp790
g178
(lp791
S'manh'
p792
assg181
(dp793
g183
(lp794
S'trnj'
p795
asS'AtlanticCity'
p796
(lp797
S'acnj'
p798
asS'JerseyCity'
p799
(lp800
S'jcnj'
p801
asg192
(lp802
S'banj'
p803
asg195
(lp804
S'psnj'
p805
asg198
(lp806
S'nenj'
p807
asg201
(lp808
S'canj'
p809
asg204
(lp810
S'panj'
p811
asg207
(lp812
S'honj'
p813
asS'EastOrange'
p814
(lp815
S'eonj'
p816
asg213
(lp817
S'elnj'
p818
assg216
(dp819
g218
(lp820
S'gatx'
p821
asg221
(lp822
S'hotx'
p823
asg224
(lp824
S'datx'
p825
asS'SanAntonio'
p826
(lp827
S'satx'
p828
asS'ElPaso'
p829
(lp830
S'eptx'
p831
asS'FortWorth'
p832
(lp833
S'fwtx'
p834
asg236
(lp835
S'autx'
p836
assg239
(dp837
g241
(lp838
S'shla'
p839
asS'NewOrleans'
p840
(lp841
S'nola'
p842
assg247
(dp843
g249
(lp844
S'wsnc'
p845
asg251
(lp846
S'chnc'
p847
assg254
(dp848
g256
(lp849
S'line'
p850
asg259
(lp851
S'omne'
p852
assg262
(dp853
g264
(lp854
S'chtn'
p855
asg267
(lp856
S'kntn'
p857
asg270
(lp858
S'metn'
p859
asg273
(lp860
S'natn'
p861
assg276
(dp862
g278
(lp863
S'alny'
p864
asg281
(lp865
S'rony'
p866
asg284
(lp867
S'many'
p868
asS'NewYork'
p869
(lp870
sg289
(lp871
S'pony'
p872
asS'MountVernon'
p873
(lp874
S'mvny'
p875
asg294
(lp876
S'bkny'
p877
asg297
(lp878
sg299
(lp879
S'auny'
p880
asg302
(lp881
S'elny'
p882
asg305
(lp883
S'yony'
p884
asg308
(lp885
S'trny'
p886
asS'NiagaraFalls'
p887
(lp888
S'niny'
p889
asg314
(lp890
S'biny'
p891
asg317
(lp892
S'utny'
p893
asg320
(lp894
S'bxny'
p895
asg323
(lp896
S'quny'
p897
asg326
(lp898
S'buny'
p899
asg329
(lp900
S'scny'
p901
asg332
(lp902
S'syny'
p903
assg335
(dp904
g337
(lp905
S'lapa'
p906
asg340
(lp907
S'repa'
p908
asg343
(lp909
S'pipa'
p910
asg346
(lp911
S'alpa'
p912
asg349
(lp913
S'phpa'
p914
asg352
(lp915
S'mcpa'
p916
asg355
(lp917
S'hapa'
p918
asg358
(lp919
S'atpa'
p920
asg361
(lp921
S'wbpa'
p922
asg364
(lp923
S'chpa'
p924
aS'wcpa'
p925
asS'NewCastle'
p926
(lp927
S'ncpa'
p928
asg370
(lp929
S'scpa'
p930
asg373
(lp931
S'erpa'
p932
asg376
(lp933
S'wlpa'
p934
asg379
(lp935
S'yopa'
p936
asg382
(lp937
S'jopa'
p938
assg385
(dp939
g387
(lp940
S'wori'
p941
asg390
(lp942
S'epri'
p943
aS'prri'
p944
asg394
(lp945
S'pari'
p946
assg397
(dp947
g399
(lp948
S'sewa'
p949
asg402
(lp950
S'spwa'
p951
asg405
(lp952
S'tawa'
p953
assg408
(dp954
g410
(lp955
S'wide'
p956
assg413
(dp957
g415
(lp958
S'wa" selectedc'
p959
assg418
(dp960
g420
(lp961
sg422
(lp962
S'suwi'
p963
asg425
(lp964
S'mawi'
p965
asg428
(lp966
S'oswi'
p967
asg431
(lp968
S'miwi'
p969
aS'smwi'
p970
asg434
(lp971
S'rawi'
p972
assg437
(dp973
g439
(lp974
S'chwv'
p975
asg442
(lp976
S'h1wv'
p977
aS'h2wv'
p978
assg445
(dp979
g447
(lp980
S'tuok'
p981
asS'OklahomaCity'
p982
(lp983
S'ocok'
p984
assg453
(dp985
g455
(lp986
S'mifl'
p987
aS'mbfl'
p988
asg458
(lp989
S'jafl'
p990
asg461
(lp991
S'tafl'
p992
assg464
(dp993
g466
(lp994
S'pome'
p995
aS'spme'
p996
assg469
(dp997
g471
(lp998
S'bamd'
p999
assg474
(dp1000
g476
(lp1001
S'loma'
p1002
asg479
(lp1003
S'lyma'
p1004
asg482
(lp1005
S'cama'
p1006
asg485
(lp1007
S'quma'
p1008
asg488
(lp1009
S'spma'
p1010
aS'wpma'
p1011
asg491
(lp1012
S'lama'
p1013
asg494
(lp1014
S'tama'
p1015
asg497
(lp1016
S'boma'
p1017
asg500
(lp1018
S'nema'
p1019
asg503
(lp1020
S'hama'
p1021
asg506
(lp1022
S'woma'
p1023
asg509
(lp1024
S'homa'
p1025
asg512
(lp1026
S'sama'
p1027
asg515
(lp1028
S'mama'
p1029
asS'FallRiver'
p1030
(lp1031
S'frma'
p1032
asg521
(lp1033
S'bcma'
p1034
asg524
(lp1035
S'soma'
p1036
asg527
(lp1037
S'fima'
p1038
asg530
(lp1039
S'chma'
p1040
asS'NewBedford'
p1041
(lp1042
S'nbma'
p1043
assg536
(dp1044
g538
(lp1045
S'cooh'
p1046
asg541
(lp1047
S'cioh'
p1048
asg544
(lp1049
S'laoh'
p1050
asg547
(lp1051
S'daoh'
p1052
asg550
(lp1053
S'tooh'
p1054
asg553
(lp1055
S'caoh'
p1056
asg556
(lp1057
S'yooh'
p1058
asg559
(lp1059
S'cloh'
p1060
aS'choh'
p1061
aS'ecoh'
p1062
asg564
(lp1063
S'akoh'
p1064
asg567
(lp1065
S'spoh'
p1066
assg570
(dp1067
S'SaltLakeCity'
p1068
(lp1069
S'slut'
p1070
assg575
(dp1071
S'StLouis'
p1072
(lp1073
S'slmo'
p1074
asg580
(lp1075
S'j1mo'
p1076
aS'j2mo'
p1077
asS'StJoseph'
p1078
(lp1079
S'sjmo'
p1080
asS'KansasCity'
p1081
(lp1082
S'kcmo'
p1083
assg590
(dp1084
S'StPaul'
p1085
(lp1086
S'spmn'
p1087
asg595
(lp1088
S'dumn'
p1089
assg598
(dp1090
g600
(lp1091
S'pomi'
p1092
asg603
(lp1093
S'demi'
p1094
aS'edmi'
p1095
asg606
(lp1096
S'lami'
p1097
asg609
(lp1098
S'flmi'
p1099
asS'GrandRapids'
p1100
(lp1101
S'grmi'
p1102
asS'BayCity'
p1103
(lp1104
S'bcmi'
p1105
asg618
(lp1106
S'sami'
p1107
assg621
(dp1108
g623
(lp1109
S'wiks'
p1110
asS'KansasCity'
p1111
(lp1112
S'kcks'
p1113
asg629
(lp1114
S'toks'
p1115
assg632
(dp1116
g634
(lp1117
S'bumt'
p1118
assg637
(dp1119
g639
(lp1120
S'chsc'
p1121
assg642
(dp1122
g644
(lp1123
S'coky'
p1124
asg647
(lp1125
S'neky'
p1126
asg650
(lp1127
S'loky'
p1128
assg653
(dp1129
g655
(lp1130
S'poor'
p1131
asssI1930
(dp1132
g2
(dp1133
g4
(lp1134
S'riva'
p1135
asg7
(lp1136
S'nova'
p1137
assg10
(dp1138
g12
(lp1139
S'puco'
p1140
asg15
(lp1141
S'deco'
p1142
assg18
(dp1143
S'LosAngeles'
p1144
(lp1145
S'laca'
p1146
asS'SanFrancisco'
p1147
(lp1148
S'sfca'
p1149
asS'SanDiego'
p1150
(lp1151
S'sdca'
p1152
asg29
(lp1153
S'scca'
p1154
asS'SanJose'
p1155
(lp1156
S'sjca'
p1157
asg35
(lp1158
S'paca'
p1159
asg38
(lp1160
S'beca'
p1161
asg41
(lp1162
S'glca'
p1163
asg44
(lp1164
S'oaca'
p1165
asS'LongBeach'
p1166
(lp1167
S'lbca'
p1168
assg50
(dp1169
g52
(lp1170
S'moal'
p1171
asg55
(lp1172
S'bial'
p1173
asg58
(lp1174
S'mnal'
p1175
assg61
(dp1176
S'LittleRock'
p1177
(lp1178
S'lrar'
p1179
assg66
(dp1180
g68
(lp1181
S'roil'
p1182
asS'EastStLouis'
p1183
(lp1184
S'esil'
p1185
asg74
(lp1186
S'chil'
p1187
asg77
(lp1188
S'auil'
p1189
asg80
(lp1190
S'ciil'
p1191
asg83
(lp1192
S'evil'
p1193
asg86
(lp1194
S'joil'
p1195
asS'OakPark'
p1196
(lp1197
S'opil'
p1198
asg92
(lp1199
S'peil'
p1200
asg95
(lp1201
S'spil'
p1202
asg98
(lp1203
S'quil'
p1204
assg101
(dp1205
g103
(lp1206
S'saga'
p1207
asg106
(lp1208
S'a1ga'
p1209
aS'a2ga'
p1210
asg110
(lp1211
S'auga'
p1212
assg113
(dp1213
g115
(lp1214
S'inin'
p1215
asS'FortWayne'
p1216
(lp1217
S'fwin'
p1218
asg121
(lp1219
S'hain'
p1220
asS'SouthBend'
p1221
(lp1222
S'sbin'
p1223
asg127
(lp1224
S'gain'
p1225
asg130
(lp1226
S'evin'
p1227
asS'TerreHaute'
p1228
(lp1229
S'thin'
p1230
assg136
(dp1231
S'DesMoines'
p1232
(lp1233
S'dmia'
p1234
asS'SiouxCity'
p1235
(lp1236
S'siia'
p1237
asg144
(lp1238
S'daia'
p1239
asg147
(lp1240
S'duia'
p1241
assg150
(dp1242
g152
(lp1243
S'phaz'
p1244
assg155
(dp1245
g157
(lp1246
S'brct'
p1247
asg160
(lp1248
S'wact'
p1249
asg163
(lp1250
S'hact'
p1251
aS'wrct'
p1252
asg167
(lp1253
S'mect'
p1254
asS'NewBritain'
p1255
(lp1256
S'nbct'
p1257
asS'NewHaven'
p1258
(lp1259
S'nhct'
p1260
assg176
(dp1261
g178
(lp1262
S'manh'
p1263
assg181
(dp1264
g183
(lp1265
S'trnj'
p1266
asS'AtlanticCity'
p1267
(lp1268
S'acnj'
p1269
asS'JerseyCity'
p1270
(lp1271
S'jcnj'
p1272
asg192
(lp1273
S'banj'
p1274
asg195
(lp1275
S'psnj'
p1276
asg198
(lp1277
S'nenj'
p1278
asg201
(lp1279
S'canj'
p1280
asg204
(lp1281
S'panj'
p1282
asg207
(lp1283
S'honj'
p1284
asS'EastOrange'
p1285
(lp1286
S'eonj'
p1287
asg213
(lp1288
S'elnj'
p1289
assg216
(dp1290
g218
(lp1291
S'gatx'
p1292
asg221
(lp1293
S'hotx'
p1294
asg224
(lp1295
S'datx'
p1296
asS'SanAntonio'
p1297
(lp1298
S'satx'
p1299
asS'ElPaso'
p1300
(lp1301
S'eptx'
p1302
asS'FortWorth'
p1303
(lp1304
S'fwtx'
p1305
asg236
(lp1306
S'autx'
p1307
assg239
(dp1308
g241
(lp1309
S'shla'
p1310
asS'NewOrleans'
p1311
(lp1312
S'nola'
p1313
assg247
(dp1314
g249
(lp1315
sg251
(lp1316
S'chnc'
p1317
assg254
(dp1318
g256
(lp1319
S'line'
p1320
asg259
(lp1321
S'omne'
p1322
assg262
(dp1323
g264
(lp1324
S'chtn'
p1325
asg267
(lp1326
S'kntn'
p1327
asg270
(lp1328
S'metn'
p1329
asg273
(lp1330
S'natn'
p1331
assg276
(dp1332
g278
(lp1333
S'alny'
p1334
asg281
(lp1335
S'rony'
p1336
asg284
(lp1337
S'many'
p1338
asS'NewYork'
p1339
(lp1340
sg289
(lp1341
S'pony'
p1342
asS'MountVernon'
p1343
(lp1344
sg294
(lp1345
S'bkny'
p1346
asg297
(lp1347
sg299
(lp1348
S'auny'
p1349
asg302
(lp1350
S'elny'
p1351
asg305
(lp1352
S'yony'
p1353
asg308
(lp1354
S'trny'
p1355
asS'NiagaraFalls'
p1356
(lp1357
S'nfny'
p1358
asg314
(lp1359
S'biny'
p1360
asg317
(lp1361
S'utny'
p1362
asg320
(lp1363
S'bxny'
p1364
asg323
(lp1365
S'quny'
p1366
asg326
(lp1367
S'buny'
p1368
asg329
(lp1369
S'scny'
p1370
asg332
(lp1371
S'syny'
p1372
assg335
(dp1373
g337
(lp1374
S'lapa'
p1375
asg340
(lp1376
S'repa'
p1377
asg343
(lp1378
S'pipa'
p1379
asg346
(lp1380
S'alpa'
p1381
asg349
(lp1382
S'phpa'
p1383
asg352
(lp1384
S'mcpa'
p1385
asg355
(lp1386
S'hapa'
p1387
asg358
(lp1388
S'atpa'
p1389
asg361
(lp1390
S'wipa'
p1391
asg364
(lp1392
S'chpa'
p1393
asS'NewCastle'
p1394
(lp1395
S'ncpa'
p1396
asg370
(lp1397
S'scpa'
p1398
asg373
(lp1399
S'erpa'
p1400
asg376
(lp1401
S'wlpa'
p1402
asg379
(lp1403
S'yopa'
p1404
asg382
(lp1405
S'jopa'
p1406
assg385
(dp1407
g387
(lp1408
S'wori'
p1409
asg390
(lp1410
S'epri'
p1411
aS'prri'
p1412
asg394
(lp1413
S'pari'
p1414
assg397
(dp1415
g399
(lp1416
S'sewa'
p1417
asg402
(lp1418
S'spwa'
p1419
asg405
(lp1420
S'tawa'
p1421
assg408
(dp1422
g410
(lp1423
S'wide'
p1424
assg413
(dp1425
g415
(lp1426
S'wadc'
p1427
assg418
(dp1428
g420
(lp1429
sg422
(lp1430
S'suwi'
p1431
asg425
(lp1432
S'mawi'
p1433
asg428
(lp1434
S'oswi'
p1435
asg431
(lp1436
S'miwi'
p1437
asg434
(lp1438
S'rawi'
p1439
assg437
(dp1440
g439
(lp1441
S'chwv'
p1442
asg442
(lp1443
S'huwv'
p1444
assg445
(dp1445
g447
(lp1446
S'tuok'
p1447
asS'OklahomaCity'
p1448
(lp1449
S'ocok'
p1450
assg453
(dp1451
g455
(lp1452
S'mifl'
p1453
asg458
(lp1454
S'jafl'
p1455
asg461
(lp1456
S'tafl'
p1457
assg464
(dp1458
g466
(lp1459
S'pome'
p1460
assg469
(dp1461
g471
(lp1462
S'bamd'
p1463
assg474
(dp1464
g476
(lp1465
S'loma'
p1466
asg479
(lp1467
S'lyma'
p1468
asg482
(lp1469
S'cama'
p1470
asg485
(lp1471
S'quma'
p1472
asg488
(lp1473
S'spma'
p1474
asg491
(lp1475
S'lama'
p1476
asg494
(lp1477
S'tama'
p1478
asg497
(lp1479
S'boma'
p1480
asg500
(lp1481
S'nema'
p1482
asg503
(lp1483
S'hama'
p1484
asg506
(lp1485
S'woma'
p1486
asg509
(lp1487
S'homa'
p1488
asg512
(lp1489
S'sama'
p1490
asg515
(lp1491
S'mama'
p1492
asS'FallRiver'
p1493
(lp1494
S'frma'
p1495
asg521
(lp1496
S'bcma'
p1497
asg524
(lp1498
S'soma'
p1499
asg527
(lp1500
S'fima'
p1501
asg530
(lp1502
S'chma'
p1503
asS'NewBedford'
p1504
(lp1505
S'nbma'
p1506
assg536
(dp1507
g538
(lp1508
S'cooh'
p1509
asg541
(lp1510
S'cioh'
p1511
asg544
(lp1512
S'laoh'
p1513
asg547
(lp1514
S'daoh'
p1515
asg550
(lp1516
S'tooh'
p1517
asg553
(lp1518
S'caoh'
p1519
asg556
(lp1520
S'yooh'
p1521
asg559
(lp1522
S'cloh'
p1523
aS'choh'
p1524
aS'ecoh'
p1525
asg564
(lp1526
S'akoh'
p1527
asg567
(lp1528
S'spoh'
p1529
assg570
(dp1530
S'SaltLakeCity'
p1531
(lp1532
S'slut'
p1533
assg575
(dp1534
S'StLouis'
p1535
(lp1536
S'slmo'
p1537
asg580
(lp1538
S'j1mo'
p1539
aS'j2mo'
p1540
asS'StJoseph'
p1541
(lp1542
S'sjmo'
p1543
asS'KansasCity'
p1544
(lp1545
S'kcmo'
p1546
assg590
(dp1547
S'StPaul'
p1548
(lp1549
S'spmn'
p1550
asg595
(lp1551
S'dumn'
p1552
assg598
(dp1553
g600
(lp1554
S'pomi'
p1555
asg603
(lp1556
S'demi'
p1557
asg606
(lp1558
S'lami'
p1559
asg609
(lp1560
S'flmi'
p1561
asS'GrandRapids'
p1562
(lp1563
S'grmi'
p1564
asS'BayCity'
p1565
(lp1566
S'bcmi'
p1567
asg618
(lp1568
S'sami'
p1569
assg621
(dp1570
g623
(lp1571
S'wiks'
p1572
asS'KansasCity'
p1573
(lp1574
S'kcks'
p1575
asg629
(lp1576
S'toks'
p1577
assg632
(dp1578
g634
(lp1579
S'bumt'
p1580
assg637
(dp1581
g639
(lp1582
S'chsc'
p1583
assg642
(dp1584
g644
(lp1585
S'coky'
p1586
asg647
(lp1587
S'neky'
p1588
asg650
(lp1589
S'luky'
p1590
assg653
(dp1591
g655
(lp1592
S'poor'
p1593
asssI1900
(dp1594
g2
(dp1595
g4
(lp1596
S'riva'
p1597
asg7
(lp1598
S'nova'
p1599
assg10
(dp1600
g12
(lp1601
sg15
(lp1602
S'deco'
p1603
assg18
(dp1604
S'LosAngeles'
p1605
(lp1606
S'laca'
p1607
asS'SanFrancisco'
p1608
(lp1609
S'sfca'
p1610
asS'SanDiego'
p1611
(lp1612
sg29
(lp1613
sS'SanJose'
p1614
(lp1615
sg35
(lp1616
sg38
(lp1617
sg41
(lp1618
sg44
(lp1619
S'oaca'
p1620
asS'LongBeach'
p1621
(lp1622
ssg50
(dp1623
g52
(lp1624
S'moal'
p1625
asg55
(lp1626
S'bial'
p1627
asg58
(lp1628
ssg61
(dp1629
S'LittleRock'
p1630
(lp1631
S'lrar'
p1632
assg66
(dp1633
g68
(lp1634
sS'EastStLouis'
p1635
(lp1636
sg74
(lp1637
S'chil'
p1638
asg77
(lp1639
sg80
(lp1640
sg83
(lp1641
S'evil'
p1642
asg86
(lp1643
sS'OakPark'
p1644
(lp1645
sg92
(lp1646
S'peil'
p1647
asg95
(lp1648
sg98
(lp1649
ssg101
(dp1650
g103
(lp1651
S'saga'
p1652
asg106
(lp1653
S'a1ga'
p1654
asg110
(lp1655
S'auga'
p1656
assg113
(dp1657
g115
(lp1658
S'inin'
p1659
asS'FortWayne'
p1660
(lp1661
S'fwin'
p1662
asg121
(lp1663
sS'SouthBend'
p1664
(lp1665
sg127
(lp1666
sg130
(lp1667
S'evin'
p1668
asS'TerreHaute'
p1669
(lp1670
ssg136
(dp1671
S'DesMoines'
p1672
(lp1673
S'dmia'
p1674
asS'SiouxCity'
p1675
(lp1676
sg144
(lp1677
sg147
(lp1678
ssg150
(dp1679
g152
(lp1680
ssg155
(dp1681
g157
(lp1682
S'brct'
p1683
asg160
(lp1684
S'wact'
p1685
asg163
(lp1686
S'hact'
p1687
asg167
(lp1688
sS'NewBritain'
p1689
(lp1690
sS'NewHaven'
p1691
(lp1692
S'nhct'
p1693
assg176
(dp1694
g178
(lp1695
S'manh'
p1696
assg181
(dp1697
g183
(lp1698
S'trnj'
p1699
asS'AtlanticCity'
p1700
(lp1701
sS'JerseyCity'
p1702
(lp1703
S'jcnj'
p1704
asg192
(lp1705
sg195
(lp1706
sg198
(lp1707
S'nenj'
p1708
asg201
(lp1709
S'canj'
p1710
asg204
(lp1711
S'panj'
p1712
asg207
(lp1713
S'honj'
p1714
asS'EastOrange'
p1715
(lp1716
sg213
(lp1717
S'elnj'
p1718
assg216
(dp1719
g218
(lp1720
sg221
(lp1721
S'hotx'
p1722
asg224
(lp1723
S'datx'
p1724
asS'SanAntonio'
p1725
(lp1726
S'satx'
p1727
asS'ElPaso'
p1728
(lp1729
sS'FortWorth'
p1730
(lp1731
sg236
(lp1732
ssg239
(dp1733
g241
(lp1734
sS'NewOrleans'
p1735
(lp1736
S'nola'
p1737
assg247
(dp1738
g249
(lp1739
sg251
(lp1740
ssg254
(dp1741
g256
(lp1742
S'line'
p1743
asg259
(lp1744
S'omne'
p1745
assg262
(dp1746
g264
(lp1747
sg267
(lp1748
sg270
(lp1749
S'metn'
p1750
asg273
(lp1751
S'natn'
p1752
assg276
(dp1753
g278
(lp1754
S'alny'
p1755
asg281
(lp1756
S'rony'
p1757
asg284
(lp1758
S'many'
p1759
asS'NewYork'
p1760
(lp1761
sg289
(lp1762
sS'MountVernon'
p1763
(lp1764
sg294
(lp1765
S'bkny'
p1766
asg297
(lp1767
sg299
(lp1768
sg302
(lp1769
sg305
(lp1770
S'yony'
p1771
asg308
(lp1772
S'trny'
p1773
asS'NiagaraFalls'
p1774
(lp1775
sg314
(lp1776
S'biny'
p1777
asg317
(lp1778
S'utny'
p1779
asg320
(lp1780
S'bxny'
p1781
asg323
(lp1782
S'quny'
p1783
asg326
(lp1784
S'buny'
p1785
asg329
(lp1786
sg332
(lp1787
S'syny'
p1788
assg335
(dp1789
g337
(lp1790
S'lapa'
p1791
asg340
(lp1792
S'repa'
p1793
asg343
(lp1794
S'pipa'
p1795
asg346
(lp1796
sg349
(lp1797
S'phpa'
p1798
asg352
(lp1799
S'mcpa'
p1800
asg355
(lp1801
S'hapa'
p1802
asg358
(lp1803
S'atpa'
p1804
asg361
(lp1805
S'wipa'
p1806
asg364
(lp1807
sS'NewCastle'
p1808
(lp1809
sg370
(lp1810
S'scpa'
p1811
asg373
(lp1812
S'erpa'
p1813
asg376
(lp1814
sg379
(lp1815
sg382
(lp1816
ssg385
(dp1817
g387
(lp1818
sg390
(lp1819
S'prri'
p1820
asg394
(lp1821
S'pari'
p1822
assg397
(dp1823
g399
(lp1824
S'sewa'
p1825
asg402
(lp1826
sg405
(lp1827
ssg408
(dp1828
g410
(lp1829
S'wide'
p1830
assg413
(dp1831
g415
(lp1832
S'wadc'
p1833
assg418
(dp1834
g420
(lp1835
sg422
(lp1836
sg425
(lp1837
sg428
(lp1838
sg431
(lp1839
S'miwi'
p1840
asg434
(lp1841
ssg437
(dp1842
g439
(lp1843
sg442
(lp1844
ssg445
(dp1845
g447
(lp1846
sS'OklahomaCity'
p1847
(lp1848
ssg453
(dp1849
g455
(lp1850
sg458
(lp1851
sg461
(lp1852
ssg464
(dp1853
g466
(lp1854
S'pome'
p1855
assg469
(dp1856
g471
(lp1857
S'bamd'
p1858
assg474
(dp1859
g476
(lp1860
S'loma'
p1861
asg479
(lp1862
S'lyma'
p1863
asg482
(lp1864
S'cama'
p1865
asg485
(lp1866
sg488
(lp1867
S'spma'
p1868
asg491
(lp1869
S'lama'
p1870
asg494
(lp1871
sg497
(lp1872
S'boma'
p1873
asg500
(lp1874
sg503
(lp1875
sg506
(lp1876
S'woma'
p1877
asg509
(lp1878
S'homa'
p1879
asg512
(lp1880
sg515
(lp1881
sS'FallRiver'
p1882
(lp1883
S'frma'
p1884
asg521
(lp1885
sg524
(lp1886
S'soma'
p1887
asg527
(lp1888
sg530
(lp1889
sS'NewBedford'
p1890
(lp1891
S'nbma'
p1892
assg536
(dp1893
g538
(lp1894
S'cooh'
p1895
asg541
(lp1896
S'cioh'
p1897
asg544
(lp1898
sg547
(lp1899
S'daoh'
p1900
asg550
(lp1901
S'tooh'
p1902
asg553
(lp1903
S'caoh'
p1904
asg556
(lp1905
S'yooh'
p1906
asg559
(lp1907
S'cloh'
p1908
asg564
(lp1909
S'akoh'
p1910
asg567
(lp1911
ssg570
(dp1912
S'SaltLakeCity'
p1913
(lp1914
S'slut'
p1915
assg575
(dp1916
S'StLouis'
p1917
(lp1918
S'slmo'
p1919
asg580
(lp1920
sS'StJoseph'
p1921
(lp1922
S'sjmo'
p1923
asS'KansasCity'
p1924
(lp1925
S'kcmo'
p1926
assg590
(dp1927
S'StPaul'
p1928
(lp1929
S'spmn'
p1930
asg595
(lp1931
S'dumn'
p1932
assg598
(dp1933
g600
(lp1934
sg603
(lp1935
S'demi'
p1936
asg606
(lp1937
sg609
(lp1938
sS'GrandRapids'
p1939
(lp1940
S'grmi'
p1941
asS'BayCity'
p1942
(lp1943
sg618
(lp1944
S'sami'
p1945
assg621
(dp1946
g623
(lp1947
sS'KansasCity'
p1948
(lp1949
S'kcks'
p1950
asg629
(lp1951
ssg632
(dp1952
g634
(lp1953
ssg637
(dp1954
g639
(lp1955
S'chsc'
p1956
assg642
(dp1957
g644
(lp1958
S'coky'
p1959
asg647
(lp1960
sg650
(lp1961
S'luky'
p1962
assg653
(dp1963
g655
(lp1964
S'poor'
p1965
asssI1910
(dp1966
g2
(dp1967
g4
(lp1968
S'riva'
p1969
asg7
(lp1970
S'nova'
p1971
assg10
(dp1972
g12
(lp1973
sg15
(lp1974
S'deco'
p1975
assg18
(dp1976
S'LosAngeles'
p1977
(lp1978
S'laca'
p1979
asS'SanFrancisco'
p1980
(lp1981
S'sfca'
p1982
asS'SanDiego'
p1983
(lp1984
S'sdca'
p1985
asg29
(lp1986
sS'SanJose'
p1987
(lp1988
sg35
(lp1989
S'paca'
p1990
asg38
(lp1991
sg41
(lp1992
S'glca'
p1993
asg44
(lp1994
sS'LongBeach'
p1995
(lp1996
S'lbca'
p1997
assg50
(dp1998
g52
(lp1999
sg55
(lp2000
S'bial'
p2001
asg58
(lp2002
ssg61
(dp2003
S'LittleRock'
p2004
(lp2005
ssg66
(dp2006
g68
(lp2007
sS'EastStLouis'
p2008
(lp2009
S'esil'
p2010
asg74
(lp2011
S'chil'
p2012
asg77
(lp2013
sg80
(lp2014
sg83
(lp2015
sg86
(lp2016
sS'OakPark'
p2017
(lp2018
sg92
(lp2019
S'peil'
p2020
asg95
(lp2021
sg98
(lp2022
ssg101
(dp2023
g103
(lp2024
S'saga'
p2025
asg106
(lp2026
S'a1ga'
p2027
asg110
(lp2028
ssg113
(dp2029
g115
(lp2030
S'inin'
p2031
asS'FortWayne'
p2032
(lp2033
S'fwin'
p2034
asg121
(lp2035
sS'SouthBend'
p2036
(lp2037
S'sbin'
p2038
asg127
(lp2039
S'gain'
p2040
asg130
(lp2041
S'evin'
p2042
asS'TerreHaute'
p2043
(lp2044
S'thin'
p2045
assg136
(dp2046
S'DesMoines'
p2047
(lp2048
S'dmia'
p2049
asS'SiouxCity'
p2050
(lp2051
sg144
(lp2052
sg147
(lp2053
ssg150
(dp2054
g152
(lp2055
S'phaz'
p2056
assg155
(dp2057
g157
(lp2058
S'brct'
p2059
asg160
(lp2060
S'wact'
p2061
asg163
(lp2062
S'hact'
p2063
asg167
(lp2064
sS'NewBritain'
p2065
(lp2066
sS'NewHaven'
p2067
(lp2068
S'nhct'
p2069
assg176
(dp2070
g178
(lp2071
S'manh'
p2072
assg181
(dp2073
g183
(lp2074
S'trnj'
p2075
asS'AtlanticCity'
p2076
(lp2077
sS'JerseyCity'
p2078
(lp2079
S'jcnj'
p2080
asg192
(lp2081
S'banj'
p2082
asg195
(lp2083
S'psnj'
p2084
asg198
(lp2085
S'nenj'
p2086
asg201
(lp2087
S'canj'
p2088
asg204
(lp2089
S'panj'
p2090
asg207
(lp2091
S'honj'
p2092
asS'EastOrange'
p2093
(lp2094
sg213
(lp2095
S'elnj'
p2096
assg216
(dp2097
g218
(lp2098
sg221
(lp2099
S'hotx'
p2100
asg224
(lp2101
S'datx'
p2102
asS'SanAntonio'
p2103
(lp2104
S'satx'
p2105
asS'ElPaso'
p2106
(lp2107
sS'FortWorth'
p2108
(lp2109
S'fwtx'
p2110
asg236
(lp2111
ssg239
(dp2112
g241
(lp2113
sS'NewOrleans'
p2114
(lp2115
S'nola'
p2116
assg247
(dp2117
g249
(lp2118
sg251
(lp2119
S'chnc'
p2120
assg254
(dp2121
g256
(lp2122
sg259
(lp2123
S'omne'
p2124
assg262
(dp2125
g264
(lp2126
sg267
(lp2127
sg270
(lp2128
S'metn'
p2129
asg273
(lp2130
S'natn'
p2131
assg276
(dp2132
g278
(lp2133
S'alny'
p2134
asg281
(lp2135
S'rony'
p2136
asg284
(lp2137
S'many'
p2138
asS'NewYork'
p2139
(lp2140
sg289
(lp2141
S'pony'
p2142
asS'MountVernon'
p2143
(lp2144
sg294
(lp2145
S'bkny'
p2146
asg297
(lp2147
sg299
(lp2148
sg302
(lp2149
sg305
(lp2150
S'yony'
p2151
asg308
(lp2152
S'trny'
p2153
asS'NiagaraFalls'
p2154
(lp2155
sg314
(lp2156
sg317
(lp2157
S'utny'
p2158
asg320
(lp2159
S'bxny'
p2160
asg323
(lp2161
S'quny'
p2162
asg326
(lp2163
S'buny'
p2164
asg329
(lp2165
S'scny'
p2166
asg332
(lp2167
S'syny'
p2168
assg335
(dp2169
g337
(lp2170
sg340
(lp2171
S'repa'
p2172
asg343
(lp2173
S'pipa'
p2174
asg346
(lp2175
sg349
(lp2176
S'phpa'
p2177
asg352
(lp2178
sg355
(lp2179
S'hapa'
p2180
asg358
(lp2181
sg361
(lp2182
sg364
(lp2183
sS'NewCastle'
p2184
(lp2185
sg370
(lp2186
S'scpa'
p2187
asg373
(lp2188
S'erpa'
p2189
asg376
(lp2190
sg379
(lp2191
sg382
(lp2192
S'jopa'
p2193
assg385
(dp2194
g387
(lp2195
sg390
(lp2196
S'prri'
p2197
asg394
(lp2198
ssg397
(dp2199
g399
(lp2200
S'sewa'
p2201
asg402
(lp2202
S'spwa'
p2203
asg405
(lp2204
S'tawa'
p2205
assg408
(dp2206
g410
(lp2207
S'wide'
p2208
assg413
(dp2209
g415
(lp2210
S'wadc'
p2211
assg418
(dp2212
g420
(lp2213
sg422
(lp2214
sg425
(lp2215
sg428
(lp2216
sg431
(lp2217
S'miwi'
p2218
asg434
(lp2219
ssg437
(dp2220
g439
(lp2221
sg442
(lp2222
ssg445
(dp2223
g447
(lp2224
S'tuok'
p2225
asS'OklahomaCity'
p2226
(lp2227
S'ocok'
p2228
assg453
(dp2229
g455
(lp2230
sg458
(lp2231
S'afl'
p2232
asg461
(lp2233
S'afl'
p2234
aS'tfl'
p2235
assg464
(dp2236
g466
(lp2237
S'pome'
p2238
assg469
(dp2239
g471
(lp2240
S'bamd'
p2241
assg474
(dp2242
g476
(lp2243
S'loma'
p2244
asg479
(lp2245
S'lyma'
p2246
asg482
(lp2247
S'cama'
p2248
asg485
(lp2249
sg488
(lp2250
S'spma'
p2251
asg491
(lp2252
S'lama'
p2253
asg494
(lp2254
sg497
(lp2255
S'boma'
p2256
asg500
(lp2257
sg503
(lp2258
sg506
(lp2259
S'woma'
p2260
asg509
(lp2261
S'homa'
p2262
asg512
(lp2263
sg515
(lp2264
sS'FallRiver'
p2265
(lp2266
S'frma'
p2267
asg521
(lp2268
S'bcma'
p2269
asg524
(lp2270
S'soma'
p2271
asg527
(lp2272
sg530
(lp2273
sS'NewBedford'
p2274
(lp2275
S'nbma'
p2276
assg536
(dp2277
g538
(lp2278
S'cooh'
p2279
asg541
(lp2280
S'cioh'
p2281
asg544
(lp2282
sg547
(lp2283
S'daoh'
p2284
asg550
(lp2285
S'tooh'
p2286
asg553
(lp2287
S'caoh'
p2288
asg556
(lp2289
S'yooh'
p2290
asg559
(lp2291
S'cloh'
p2292
asg564
(lp2293
S'akoh'
p2294
asg567
(lp2295
ssg570
(dp2296
S'SaltLakeCity'
p2297
(lp2298
S'slut'
p2299
assg575
(dp2300
S'StLouis'
p2301
(lp2302
S'slmo'
p2303
asg580
(lp2304
sS'StJoseph'
p2305
(lp2306
S'sjmo'
p2307
asS'KansasCity'
p2308
(lp2309
S'kcmo'
p2310
assg590
(dp2311
S'StPaul'
p2312
(lp2313
S'spmn'
p2314
asg595
(lp2315
S'dumn'
p2316
assg598
(dp2317
g600
(lp2318
sg603
(lp2319
S'demi'
p2320
asg606
(lp2321
sg609
(lp2322
sS'GrandRapids'
p2323
(lp2324
S'grmi'
p2325
asS'BayCity'
p2326
(lp2327
sg618
(lp2328
ssg621
(dp2329
g623
(lp2330
S'wiks'
p2331
asS'KansasCity'
p2332
(lp2333
S'kcks'
p2334
asg629
(lp2335
ssg632
(dp2336
g634
(lp2337
ssg637
(dp2338
g639
(lp2339
S'chsc'
p2340
assg642
(dp2341
g644
(lp2342
sg647
(lp2343
sg650
(lp2344
S'luky'
p2345
assg653
(dp2346
g655
(lp2347
S'poor'
p2348
asss.