(dp0
I1920
(dp1
S'va'
p2
(dp3
S'Richmond'
p4
(lp5
S'riva'
p6
asS'Norfolk'
p7
(lp8
S'nova'
p9
assS'co'
p10
(dp11
S'Pueblo'
p12
(lp13
S'puco'
p14
asS'Denver'
p15
(lp16
S'deco'
p17
assS'ca'
p18
(dp19
S'LosAngeles'
p20
(lp21
S'laca'
p22
asS'SanFrancisco'
p23
(lp24
S'sfca'
p25
asS'SanDiego'
p26
(lp27
S'sdca'
p28
asS'Sacramento'
p29
(lp30
S'scca'
p31
asS'SanJose'
p32
(lp33
S'sjca'
p34
asS'Pasadena'
p35
(lp36
S'paca'
p37
asS'Berkeley'
p38
(lp39
S'beca'
p40
asS'Glendale'
p41
(lp42
S'glca'
p43
asS'Oakland'
p44
(lp45
S'oaca'
p46
asS'LongBeach'
p47
(lp48
S'lbca'
p49
assS'al'
p50
(dp51
S'Mobile'
p52
(lp53
S'moal'
p54
asS'Birmingham'
p55
(lp56
S'bial'
p57
asS'Montgomery'
p58
(lp59
S'mnal'
p60
assS'ar'
p61
(dp62
S'LittleRock'
p63
(lp64
S'lrar'
p65
assS'il'
p66
(dp67
S'Rockford'
p68
(lp69
S'roil'
p70
asS'EastStLouis'
p71
(lp72
S'esil'
p73
asS'Chicago'
p74
(lp75
S'chil'
p76
asS'Aurora'
p77
(lp78
S'auil'
p79
asS'Cicero'
p80
(lp81
S'ciil'
p82
asS'Evanston'
p83
(lp84
S'evil'
p85
asS'Joliet'
p86
(lp87
S'joil'
p88
asS'OakPark'
p89
(lp90
S'opil'
p91
asS'Peoria'
p92
(lp93
S'peil'
p94
asS'Springfield'
p95
(lp96
S'spil'
p97
asS'Quincy'
p98
(lp99
S'quil'
p100
assS'ga'
p101
(dp102
S'Savannah'
p103
(lp104
S'saga'
p105
asS'Atlanta'
p106
(lp107
S'a1ga'
p108
aS'a2ga'
p109
asS'Augusta'
p110
(lp111
S'auga'
p112
assS'in'
p113
(dp114
S'Indianapolis'
p115
(lp116
S'inin'
p117
asS'FortWayne'
p118
(lp119
S'fwin'
p120
asS'Hammond'
p121
(lp122
S'hain'
p123
asS'SouthBend'
p124
(lp125
S'sbin'
p126
asS'Gary'
p127
(lp128
S'gain'
p129
asS'Evansville'
p130
(lp131
S'evin'
p132
asS'TerreHaute'
p133
(lp134
S'thin'
p135
assS'ia'
p136
(dp137
S'Davenport'
p138
(lp139
S'daia'
p140
asS'SiouxCity'
p141
(lp142
S'siia'
p143
asS'DesMoines'
p144
(lp145
S'dmia'
p146
asS'Dubuque'
p147
(lp148
S'duia'
p149
assS'az'
p150
(dp151
S'Phoenix'
p152
(lp153
S'phaz'
p154
assS'ct'
p155
(dp156
S'Bridgeport'
p157
(lp158
S'brct'
p159
asS'Waterbury'
p160
(lp161
S'wact'
p162
asS'Hartford'
p163
(lp164
S'hact'
p165
aS'wrct'
p166
asS'Meriden'
p167
(lp168
S'mect'
p169
asS'NewBritain'
p170
(lp171
S'nbct'
p172
asS'NewHaven'
p173
(lp174
S'nhct'
p175
assS'nh'
p176
(dp177
S'Manchester'
p178
(lp179
S'manh'
p180
assS'nj'
p181
(dp182
S'Trenton'
p183
(lp184
S'trnj'
p185
asS'AtlanticCity'
p186
(lp187
S'acnj'
p188
asS'Passaic'
p189
(lp190
S'psnj'
p191
asS'Bayonne'
p192
(lp193
S'banj'
p194
asS'Newark'
p195
(lp196
S'nenj'
p197
asS'Camden'
p198
(lp199
S'canj'
p200
asS'Paterson'
p201
(lp202
S'panj'
p203
asS'JerseyCity'
p204
(lp205
S'jcnj'
p206
asS'EastOrange'
p207
(lp208
S'eonj'
p209
asS'Hoboken'
p210
(lp211
S'honj'
p212
asS'Elizabeth'
p213
(lp214
S'elnj'
p215
assS'tx'
p216
(dp217
S'Galveston'
p218
(lp219
S'gatx'
p220
asS'Houston'
p221
(lp222
S'hotx'
p223
asS'Dallas'
p224
(lp225
S'datx'
p226
asS'ElPaso'
p227
(lp228
S'eptx'
p229
asS'SanAntonio'
p230
(lp231
S'satx'
p232
asS'FortWorth'
p233
(lp234
S'fwtx'
p235
asS'Austin'
p236
(lp237
S'autx'
p238
assS'la'
p239
(dp240
S'NewOrleans'
p241
(lp242
S'nola'
p243
asS'Shreveport'
p244
(lp245
S'shla'
p246
assS'nc'
p247
(dp248
S'Winston-Salem'
p249
(lp250
sS'Charlotte'
p251
(lp252
S'chnc'
p253
assS'ne'
p254
(dp255
S'Lincoln'
p256
(lp257
S'line'
p258
asS'Omaha'
p259
(lp260
S'omne'
p261
assS'tn'
p262
(dp263
S'Chattanooga'
p264
(lp265
S'chtn'
p266
asS'Knoxville'
p267
(lp268
S'kntn'
p269
asS'Memphis'
p270
(lp271
S'metn'
p272
asS'Nashville'
p273
(lp274
S'natn'
p275
assS'ny'
p276
(dp277
S'Albany'
p278
(lp279
S'alny'
p280
asS'Rochester'
p281
(lp282
S'rony'
p283
asS'NewYork'
p284
(lp285
sS'Buffalo'
p286
(lp287
S'buny'
p288
asS'NiagaraFalls'
p289
(lp290
S'nfny'
p291
asS'Syracuse'
p292
(lp293
S'syny'
p294
asS'MountVernon'
p295
(lp296
sS'Troy'
p297
(lp298
S'trny'
p299
asS'Auburn'
p300
(lp301
S'auny'
p302
asS'Elmira'
p303
(lp304
S'elny'
p305
asS'Yonkers'
p306
(lp307
S'yony'
p308
asS'Brooklyn'
p309
(lp310
S'bkny'
p311
asS'Poughkeepsie'
p312
(lp313
S'pony'
p314
asS'Schenectady'
p315
(lp316
S'scny'
p317
asS'Binghamton'
p318
(lp319
S'biny'
p320
asS'Bronx'
p321
(lp322
S'bxny'
p323
asS'Queens'
p324
(lp325
S'quny'
p326
asS'StatenIsland'
p327
(lp328
S'riny'
p329
asS'Manhattan'
p330
(lp331
S'many'
p332
asS'Utica'
p333
(lp334
S'utny'
p335
assS'pa'
p336
(dp337
S'Lancaster'
p338
(lp339
S'lapa'
p340
asS'Erie'
p341
(lp342
S'erpa'
p343
asS'Johnstown'
p344
(lp345
S'jopa'
p346
asS'Pittsburgh'
p347
(lp348
S'pipa'
p349
asS'Allentown'
p350
(lp351
S'alpa'
p352
asS'Philadelphia'
p353
(lp354
S'phpa'
p355
asS'Harrisburg'
p356
(lp357
S'hapa'
p358
asS'Altoona'
p359
(lp360
S'atpa'
p361
asS'Wilkes-Barre'
p362
(lp363
S'wipa'
p364
asS'Chester'
p365
(lp366
S'chpa'
p367
asS'NewCastle'
p368
(lp369
S'ncpa'
p370
asS'Scranton'
p371
(lp372
S'scpa'
p373
asS'Allegheny'
p374
(lp375
sS'Reading'
p376
(lp377
S'repa'
p378
asS'Williamsport'
p379
(lp380
S'wlpa'
p381
asS'York'
p382
(lp383
S'yopa'
p384
asS'McKeesport'
p385
(lp386
S'mcpa'
p387
assS'ri'
p388
(dp389
S'Woonsocket'
p390
(lp391
S'wori'
p392
asS'Providence'
p393
(lp394
S'epri'
p395
aS'prri'
p396
asS'Pawtucket'
p397
(lp398
S'pari'
p399
assS'wa'
p400
(dp401
S'Seattle'
p402
(lp403
S'sewa'
p404
asS'Spokane'
p405
(lp406
S'spwa'
p407
asS'Tacoma'
p408
(lp409
S'tawa'
p410
assS'de'
p411
(dp412
S'Wilmington'
p413
(lp414
S'wide'
p415
assS'dc'
p416
(dp417
S'Washington'
p418
(lp419
S'wadc'
p420
assS'wi'
p421
(dp422
S'LaCrosse'
p423
(lp424
S'lcwi'
p425
asS'Superior'
p426
(lp427
S'suwi'
p428
asS'Madison'
p429
(lp430
S'mawi'
p431
asS'Oshkosh'
p432
(lp433
S'oswi'
p434
asS'Milwaukee'
p435
(lp436
S'miwi'
p437
asS'Racine'
p438
(lp439
S'rawi'
p440
assS'wv'
p441
(dp442
S'Charleston'
p443
(lp444
S'chwv'
p445
asS'Huntington'
p446
(lp447
S'huwv'
p448
assS'ma'
p449
(dp450
S'Lowell'
p451
(lp452
S'loma'
p453
asS'Lynn'
p454
(lp455
S'lyma'
p456
asS'Cambridge'
p457
(lp458
S'cama'
p459
asS'Quincy'
p460
(lp461
S'quma'
p462
asS'Lawrence'
p463
(lp464
S'lama'
p465
asS'Taunton'
p466
(lp467
S'tama'
p468
asS'Boston'
p469
(lp470
S'boma'
p471
asS'Newton'
p472
(lp473
S'nema'
p474
asS'Haverhill'
p475
(lp476
S'hama'
p477
asS'Worcester'
p478
(lp479
S'woma'
p480
asS'Chelsea'
p481
(lp482
S'chma'
p483
asS'Holyoke'
p484
(lp485
S'homa'
p486
asS'Salem'
p487
(lp488
S'sama'
p489
asS'Malden'
p490
(lp491
S'mama'
p492
asS'FallRiver'
p493
(lp494
S'frma'
p495
asS'Somerville'
p496
(lp497
S'soma'
p498
asS'NewBedford'
p499
(lp500
S'nbma'
p501
asS'Fitchburg'
p502
(lp503
S'fima'
p504
asS'Brockton'
p505
(lp506
S'bcma'
p507
asS'Springfield'
p508
(lp509
S'spma'
p510
assS'fl'
p511
(dp512
S'Miami'
p513
(lp514
S'mifl'
p515
asS'Jacksonville'
p516
(lp517
S'jafl'
p518
asS'Tampa'
p519
(lp520
S'tafl'
p521
assS'me'
p522
(dp523
S'Portland'
p524
(lp525
S'pome'
p526
assS'md'
p527
(dp528
S'Baltimore'
p529
(lp530
S'bamd'
p531
assS'ok'
p532
(dp533
S'Tulsa'
p534
(lp535
S'tuok'
p536
asS'OklahomaCity'
p537
(lp538
S'ocok'
p539
assS'oh'
p540
(dp541
S'Columbus'
p542
(lp543
S'cooh'
p544
asS'Cincinnati'
p545
(lp546
S'cioh'
p547
asS'Lakewood'
p548
(lp549
S'laoh'
p550
asS'Dayton'
p551
(lp552
S'daoh'
p553
asS'Cleveland'
p554
(lp555
S'cloh'
p556
aS'choh'
p557
aS'ecoh'
p558
asS'Canton'
p559
(lp560
S'caoh'
p561
asS'Youngstown'
p562
(lp563
S'yooh'
p564
asS'Toledo'
p565
(lp566
S'tooh'
p567
asS'Akron'
p568
(lp569
S'akoh'
p570
asS'Springfield'
p571
(lp572
S'spoh'
p573
assS'ut'
p574
(dp575
S'SaltLakeCity'
p576
(lp577
S'slut'
p578
assS'mo'
p579
(dp580
S'StLouis'
p581
(lp582
S'slmo'
p583
asS'Joplin'
p584
(lp585
S'j1mo'
p586
aS'j2mo'
p587
asS'StJoseph'
p588
(lp589
S'sjmo'
p590
asS'KansasCity'
p591
(lp592
S'kcmo'
p593
assS'mn'
p594
(dp595
S'StPaul'
p596
(lp597
S'spmn'
p598
asS'Duluth'
p599
(lp600
S'dumn'
p601
asS'Minneapolis'
p602
(lp603
S'mimn'
p604
assS'mi'
p605
(dp606
S'Pontiac'
p607
(lp608
S'pomi'
p609
asS'Detroit'
p610
(lp611
S'demi'
p612
asS'Lansing'
p613
(lp614
S'lami'
p615
asS'Flint'
p616
(lp617
S'flmi'
p618
asS'GrandRapids'
p619
(lp620
S'grmi'
p621
asS'BayCity'
p622
(lp623
S'bcmi'
p624
asS'Saginaw'
p625
(lp626
S'sami'
p627
assS'ks'
p628
(dp629
S'Topeka'
p630
(lp631
S'toks'
p632
asS'KansasCity'
p633
(lp634
S'kcks'
p635
asS'Wichita'
p636
(lp637
S'wiks'
p638
assS'mt'
p639
(dp640
S'Butte'
p641
(lp642
S'bumt'
p643
assS'sc'
p644
(dp645
S'Charleston'
p646
(lp647
S'chsc'
p648
assS'ky'
p649
(dp650
S'Covington'
p651
(lp652
S'coky'
p653
asS'Newport'
p654
(lp655
S'neky'
p656
asS'Louisville'
p657
(lp658
S'luky'
p659
assS'or'
p660
(dp661
S'Portland'
p662
(lp663
S'poor'
p664
asssI1900
(dp665
g2
(dp666
g4
(lp667
S'riva'
p668
asg7
(lp669
S'nova'
p670
assg10
(dp671
g12
(lp672
sg15
(lp673
S'deco'
p674
assg18
(dp675
S'LosAngeles'
p676
(lp677
S'laca'
p678
asS'SanFrancisco'
p679
(lp680
S'sfca'
p681
asS'SanDiego'
p682
(lp683
sg29
(lp684
sS'SanJose'
p685
(lp686
sg35
(lp687
sg38
(lp688
sg41
(lp689
sg44
(lp690
S'oaca'
p691
asS'LongBeach'
p692
(lp693
ssg50
(dp694
g52
(lp695
S'moal'
p696
asg55
(lp697
S'bial'
p698
asg58
(lp699
ssg61
(dp700
S'LittleRock'
p701
(lp702
S'lrar'
p703
assg66
(dp704
g68
(lp705
sS'EastStLouis'
p706
(lp707
sg74
(lp708
S'chil'
p709
asg77
(lp710
sg80
(lp711
sg83
(lp712
S'evil'
p713
asg86
(lp714
sS'OakPark'
p715
(lp716
sg92
(lp717
S'peil'
p718
asg95
(lp719
sg98
(lp720
ssg101
(dp721
g103
(lp722
S'saga'
p723
asg106
(lp724
S'a1ga'
p725
asg110
(lp726
S'auga'
p727
assg113
(dp728
g115
(lp729
S'inin'
p730
asS'FortWayne'
p731
(lp732
S'fwin'
p733
asg121
(lp734
sS'SouthBend'
p735
(lp736
sg127
(lp737
sg130
(lp738
S'evin'
p739
asS'TerreHaute'
p740
(lp741
ssg136
(dp742
g138
(lp743
sS'SiouxCity'
p744
(lp745
sS'DesMoines'
p746
(lp747
S'dmia'
p748
asg147
(lp749
ssg150
(dp750
g152
(lp751
ssg155
(dp752
g157
(lp753
S'brct'
p754
asg160
(lp755
S'wact'
p756
asg163
(lp757
S'hact'
p758
asg167
(lp759
sS'NewBritain'
p760
(lp761
sS'NewHaven'
p762
(lp763
S'nhct'
p764
assg176
(dp765
g178
(lp766
S'manh'
p767
assg181
(dp768
g183
(lp769
S'trnj'
p770
asS'AtlanticCity'
p771
(lp772
sg189
(lp773
sg192
(lp774
sg195
(lp775
S'nenj'
p776
asg198
(lp777
S'canj'
p778
asg201
(lp779
S'panj'
p780
asS'JerseyCity'
p781
(lp782
S'jcnj'
p783
asS'EastOrange'
p784
(lp785
sg210
(lp786
S'honj'
p787
asg213
(lp788
S'elnj'
p789
assg216
(dp790
g218
(lp791
sg221
(lp792
S'hotx'
p793
asg224
(lp794
S'datx'
p795
asS'ElPaso'
p796
(lp797
sS'SanAntonio'
p798
(lp799
S'satx'
p800
asS'FortWorth'
p801
(lp802
sg236
(lp803
ssg239
(dp804
S'NewOrleans'
p805
(lp806
S'nola'
p807
asg244
(lp808
ssg247
(dp809
g249
(lp810
sg251
(lp811
ssg254
(dp812
g256
(lp813
S'line'
p814
asg259
(lp815
S'omne'
p816
assg262
(dp817
g264
(lp818
sg267
(lp819
sg270
(lp820
S'metn'
p821
asg273
(lp822
S'natn'
p823
assg276
(dp824
g278
(lp825
S'alny'
p826
asg281
(lp827
S'rony'
p828
asS'NewYork'
p829
(lp830
sg286
(lp831
S'buny'
p832
asS'NiagaraFalls'
p833
(lp834
sg292
(lp835
S'syny'
p836
asS'MountVernon'
p837
(lp838
sg297
(lp839
S'trny'
p840
asg300
(lp841
sg303
(lp842
sg306
(lp843
S'yony'
p844
asg309
(lp845
S'bkny'
p846
asg312
(lp847
sg315
(lp848
sg318
(lp849
S'biny'
p850
asg321
(lp851
S'bxny'
p852
asg324
(lp853
S'quny'
p854
asS'StatenIsland'
p855
(lp856
S'riny'
p857
asg330
(lp858
S'many'
p859
asg333
(lp860
S'utny'
p861
assg336
(dp862
g338
(lp863
S'lapa'
p864
asg341
(lp865
S'erpa'
p866
asg344
(lp867
sg347
(lp868
S'pipa'
p869
asg350
(lp870
sg353
(lp871
S'phpa'
p872
asg356
(lp873
S'hapa'
p874
asg359
(lp875
S'atpa'
p876
asg362
(lp877
S'wipa'
p878
asg365
(lp879
sS'NewCastle'
p880
(lp881
sg371
(lp882
S'scpa'
p883
asg374
(lp884
S'agpa'
p885
asg376
(lp886
S'repa'
p887
asg379
(lp888
sg382
(lp889
sg385
(lp890
S'mcpa'
p891
assg388
(dp892
g390
(lp893
sg393
(lp894
S'prri'
p895
asg397
(lp896
S'pari'
p897
assg400
(dp898
g402
(lp899
S'sewa'
p900
asg405
(lp901
sg408
(lp902
ssg411
(dp903
g413
(lp904
S'wide'
p905
assg416
(dp906
g418
(lp907
S'wadc'
p908
assg421
(dp909
g423
(lp910
sg426
(lp911
sg429
(lp912
sg432
(lp913
sg435
(lp914
S'miwi'
p915
asg438
(lp916
ssg441
(dp917
g443
(lp918
sg446
(lp919
ssg449
(dp920
g451
(lp921
S'loma'
p922
asg454
(lp923
S'lyma'
p924
asg457
(lp925
S'cama'
p926
asg460
(lp927
sg463
(lp928
S'lama'
p929
asg466
(lp930
sg469
(lp931
S'boma'
p932
asg472
(lp933
sg475
(lp934
sg478
(lp935
S'woma'
p936
asg481
(lp937
sg484
(lp938
S'homa'
p939
asg487
(lp940
sg490
(lp941
sS'FallRiver'
p942
(lp943
S'frma'
p944
asg496
(lp945
S'soma'
p946
asS'NewBedford'
p947
(lp948
S'nbma'
p949
asg502
(lp950
sg505
(lp951
sg508
(lp952
S'spma'
p953
assg511
(dp954
g513
(lp955
sg516
(lp956
sg519
(lp957
ssg522
(dp958
g524
(lp959
S'pome'
p960
assg527
(dp961
g529
(lp962
S'bamd'
p963
assg532
(dp964
g534
(lp965
sS'OklahomaCity'
p966
(lp967
ssg540
(dp968
g542
(lp969
S'cooh'
p970
asg545
(lp971
S'cioh'
p972
asg548
(lp973
sg551
(lp974
S'daoh'
p975
asg554
(lp976
S'cloh'
p977
asg559
(lp978
S'caoh'
p979
asg562
(lp980
S'yooh'
p981
asg565
(lp982
S'tooh'
p983
asg568
(lp984
S'akoh'
p985
asg571
(lp986
ssg574
(dp987
S'SaltLakeCity'
p988
(lp989
S'slut'
p990
assg579
(dp991
S'StLouis'
p992
(lp993
S'slmo'
p994
asg584
(lp995
sS'StJoseph'
p996
(lp997
S'sjmo'
p998
asS'KansasCity'
p999
(lp1000
S'kcmo'
p1001
assg594
(dp1002
S'StPaul'
p1003
(lp1004
S'spmn'
p1005
asg599
(lp1006
S'dumn'
p1007
asg602
(lp1008
S'mimn'
p1009
assg605
(dp1010
g607
(lp1011
sg610
(lp1012
S'demi'
p1013
asg613
(lp1014
sg616
(lp1015
sS'GrandRapids'
p1016
(lp1017
S'grmi'
p1018
asS'BayCity'
p1019
(lp1020
sg625
(lp1021
S'sami'
p1022
assg628
(dp1023
g630
(lp1024
sS'KansasCity'
p1025
(lp1026
S'kcks'
p1027
asg636
(lp1028
ssg639
(dp1029
g641
(lp1030
ssg644
(dp1031
g646
(lp1032
S'chsc'
p1033
assg649
(dp1034
g651
(lp1035
S'coky'
p1036
asg654
(lp1037
sg657
(lp1038
S'luky'
p1039
assg660
(dp1040
g662
(lp1041
S'poor'
p1042
asssI1930
(dp1043
g2
(dp1044
g4
(lp1045
S'riva'
p1046
asg7
(lp1047
S'nova'
p1048
assg10
(dp1049
g12
(lp1050
S'puco'
p1051
asg15
(lp1052
S'deco'
p1053
assg18
(dp1054
S'LosAngeles'
p1055
(lp1056
S'laca'
p1057
asS'SanFrancisco'
p1058
(lp1059
S'sfca'
p1060
asS'SanDiego'
p1061
(lp1062
S'sdca'
p1063
asg29
(lp1064
S'scca'
p1065
asS'SanJose'
p1066
(lp1067
S'sjca'
p1068
asg35
(lp1069
S'paca'
p1070
asg38
(lp1071
S'beca'
p1072
asg41
(lp1073
S'glca'
p1074
asg44
(lp1075
S'oaca'
p1076
asS'LongBeach'
p1077
(lp1078
S'lbca'
p1079
assg50
(dp1080
g52
(lp1081
S'moal'
p1082
asg55
(lp1083
S'bial'
p1084
asg58
(lp1085
S'mnal'
p1086
assg61
(dp1087
S'LittleRock'
p1088
(lp1089
S'lrar'
p1090
assg66
(dp1091
g68
(lp1092
S'roil'
p1093
asS'EastStLouis'
p1094
(lp1095
S'esil'
p1096
asg74
(lp1097
S'chil'
p1098
asg77
(lp1099
S'auil'
p1100
asg80
(lp1101
S'ciil'
p1102
asg83
(lp1103
S'evil'
p1104
asg86
(lp1105
S'joil'
p1106
asS'OakPark'
p1107
(lp1108
S'opil'
p1109
asg92
(lp1110
S'peil'
p1111
asg95
(lp1112
S'spil'
p1113
asg98
(lp1114
S'quil'
p1115
assg101
(dp1116
g103
(lp1117
S'saga'
p1118
asg106
(lp1119
S'a1ga'
p1120
aS'a2ga'
p1121
asg110
(lp1122
S'auga'
p1123
assg113
(dp1124
g115
(lp1125
S'inin'
p1126
asS'FortWayne'
p1127
(lp1128
S'fwin'
p1129
asg121
(lp1130
S'hain'
p1131
asS'SouthBend'
p1132
(lp1133
S'sbin'
p1134
asg127
(lp1135
S'gain'
p1136
asg130
(lp1137
S'evin'
p1138
asS'TerreHaute'
p1139
(lp1140
S'thin'
p1141
assg136
(dp1142
g138
(lp1143
S'daia'
p1144
asS'SiouxCity'
p1145
(lp1146
S'siia'
p1147
asS'DesMoines'
p1148
(lp1149
S'dmia'
p1150
asg147
(lp1151
S'duia'
p1152
assg150
(dp1153
g152
(lp1154
S'phaz'
p1155
assg155
(dp1156
g157
(lp1157
S'brct'
p1158
asg160
(lp1159
S'wact'
p1160
asg163
(lp1161
S'hact'
p1162
aS'wrct'
p1163
asg167
(lp1164
S'mect'
p1165
asS'NewBritain'
p1166
(lp1167
S'nbct'
p1168
asS'NewHaven'
p1169
(lp1170
S'nhct'
p1171
assg176
(dp1172
g178
(lp1173
S'manh'
p1174
assg181
(dp1175
g183
(lp1176
S'trnj'
p1177
asS'AtlanticCity'
p1178
(lp1179
S'acnj'
p1180
asg189
(lp1181
S'psnj'
p1182
asg192
(lp1183
S'banj'
p1184
asg195
(lp1185
S'nenj'
p1186
asg198
(lp1187
S'canj'
p1188
asg201
(lp1189
S'panj'
p1190
asS'JerseyCity'
p1191
(lp1192
S'jcnj'
p1193
asS'EastOrange'
p1194
(lp1195
S'eonj'
p1196
asg210
(lp1197
S'honj'
p1198
asg213
(lp1199
S'elnj'
p1200
assg216
(dp1201
g218
(lp1202
S'gatx'
p1203
asg221
(lp1204
S'hotx'
p1205
asg224
(lp1206
S'datx'
p1207
asS'ElPaso'
p1208
(lp1209
S'eptx'
p1210
asS'SanAntonio'
p1211
(lp1212
S'satx'
p1213
asS'FortWorth'
p1214
(lp1215
S'fwtx'
p1216
asg236
(lp1217
S'autx'
p1218
assg239
(dp1219
S'NewOrleans'
p1220
(lp1221
S'nola'
p1222
asg244
(lp1223
S'shla'
p1224
assg247
(dp1225
g249
(lp1226
sg251
(lp1227
S'chnc'
p1228
assg254
(dp1229
g256
(lp1230
S'line'
p1231
asg259
(lp1232
S'omne'
p1233
assg262
(dp1234
g264
(lp1235
S'chtn'
p1236
asg267
(lp1237
S'kntn'
p1238
asg270
(lp1239
S'metn'
p1240
asg273
(lp1241
S'natn'
p1242
assg276
(dp1243
g278
(lp1244
S'alny'
p1245
asg281
(lp1246
S'rony'
p1247
asS'NewYork'
p1248
(lp1249
sg286
(lp1250
S'buny'
p1251
asS'NiagaraFalls'
p1252
(lp1253
S'nfny'
p1254
asg292
(lp1255
S'syny'
p1256
asS'MountVernon'
p1257
(lp1258
sg297
(lp1259
S'trny'
p1260
asg300
(lp1261
S'auny'
p1262
asg303
(lp1263
S'elny'
p1264
asg306
(lp1265
S'yony'
p1266
asg309
(lp1267
S'bkny'
p1268
asg312
(lp1269
S'pony'
p1270
asg315
(lp1271
S'scny'
p1272
asg318
(lp1273
S'biny'
p1274
asg321
(lp1275
S'bxny'
p1276
asg324
(lp1277
S'quny'
p1278
asS'StatenIsland'
p1279
(lp1280
S'riny'
p1281
asg330
(lp1282
S'many'
p1283
asg333
(lp1284
S'utny'
p1285
assg336
(dp1286
g338
(lp1287
S'lapa'
p1288
asg341
(lp1289
S'erpa'
p1290
asg344
(lp1291
S'jopa'
p1292
asg347
(lp1293
S'pipa'
p1294
asg350
(lp1295
S'alpa'
p1296
asg353
(lp1297
S'phpa'
p1298
asg356
(lp1299
S'hapa'
p1300
asg359
(lp1301
S'atpa'
p1302
asg362
(lp1303
S'wipa'
p1304
asg365
(lp1305
S'chpa'
p1306
asS'NewCastle'
p1307
(lp1308
S'ncpa'
p1309
asg371
(lp1310
S'scpa'
p1311
asg374
(lp1312
sg376
(lp1313
S'repa'
p1314
asg379
(lp1315
S'wlpa'
p1316
asg382
(lp1317
S'yopa'
p1318
asg385
(lp1319
S'mcpa'
p1320
assg388
(dp1321
g390
(lp1322
S'wori'
p1323
asg393
(lp1324
S'epri'
p1325
aS'prri'
p1326
asg397
(lp1327
S'pari'
p1328
assg400
(dp1329
g402
(lp1330
S'sewa'
p1331
asg405
(lp1332
S'spwa'
p1333
asg408
(lp1334
S'tawa'
p1335
assg411
(dp1336
g413
(lp1337
S'wide'
p1338
assg416
(dp1339
g418
(lp1340
S'wadc'
p1341
assg421
(dp1342
g423
(lp1343
g425
asg426
(lp1344
S'suwi'
p1345
asg429
(lp1346
S'mawi'
p1347
asg432
(lp1348
S'oswi'
p1349
asg435
(lp1350
S'miwi'
p1351
asg438
(lp1352
S'rawi'
p1353
assg441
(dp1354
g443
(lp1355
S'chwv'
p1356
asg446
(lp1357
S'huwv'
p1358
assg449
(dp1359
g451
(lp1360
S'loma'
p1361
asg454
(lp1362
S'lyma'
p1363
asg457
(lp1364
S'cama'
p1365
asg460
(lp1366
S'quma'
p1367
asg463
(lp1368
S'lama'
p1369
asg466
(lp1370
S'tama'
p1371
asg469
(lp1372
S'boma'
p1373
asg472
(lp1374
S'nema'
p1375
asg475
(lp1376
S'hama'
p1377
asg478
(lp1378
S'woma'
p1379
asg481
(lp1380
S'chma'
p1381
asg484
(lp1382
S'homa'
p1383
asg487
(lp1384
S'sama'
p1385
asg490
(lp1386
S'mama'
p1387
asS'FallRiver'
p1388
(lp1389
S'frma'
p1390
asg496
(lp1391
S'soma'
p1392
asS'NewBedford'
p1393
(lp1394
S'nbma'
p1395
asg502
(lp1396
S'fima'
p1397
asg505
(lp1398
S'bcma'
p1399
asg508
(lp1400
S'spma'
p1401
assg511
(dp1402
g513
(lp1403
S'mifl'
p1404
asg516
(lp1405
S'jafl'
p1406
asg519
(lp1407
S'tafl'
p1408
assg522
(dp1409
g524
(lp1410
S'pome'
p1411
assg527
(dp1412
g529
(lp1413
S'bamd'
p1414
assg532
(dp1415
g534
(lp1416
S'tuok'
p1417
asS'OklahomaCity'
p1418
(lp1419
S'ocok'
p1420
assg540
(dp1421
g542
(lp1422
S'cooh'
p1423
asg545
(lp1424
S'cioh'
p1425
asg548
(lp1426
S'laoh'
p1427
asg551
(lp1428
S'daoh'
p1429
asg554
(lp1430
S'cloh'
p1431
aS'choh'
p1432
aS'ecoh'
p1433
asg559
(lp1434
S'caoh'
p1435
asg562
(lp1436
S'yooh'
p1437
asg565
(lp1438
S'tooh'
p1439
asg568
(lp1440
S'akoh'
p1441
asg571
(lp1442
S'spoh'
p1443
assg574
(dp1444
S'SaltLakeCity'
p1445
(lp1446
S'slut'
p1447
assg579
(dp1448
S'StLouis'
p1449
(lp1450
S'slmo'
p1451
asg584
(lp1452
S'j1mo'
p1453
aS'j2mo'
p1454
asS'StJoseph'
p1455
(lp1456
S'sjmo'
p1457
asS'KansasCity'
p1458
(lp1459
S'kcmo'
p1460
assg594
(dp1461
S'StPaul'
p1462
(lp1463
S'spmn'
p1464
asg599
(lp1465
S'dumn'
p1466
asg602
(lp1467
S'mimn'
p1468
assg605
(dp1469
g607
(lp1470
S'pomi'
p1471
asg610
(lp1472
S'demi'
p1473
asg613
(lp1474
S'lami'
p1475
asg616
(lp1476
S'flmi'
p1477
asS'GrandRapids'
p1478
(lp1479
S'grmi'
p1480
asS'BayCity'
p1481
(lp1482
S'bcmi'
p1483
asg625
(lp1484
S'sami'
p1485
assg628
(dp1486
g630
(lp1487
S'toks'
p1488
asS'KansasCity'
p1489
(lp1490
S'kcks'
p1491
asg636
(lp1492
S'wiks'
p1493
assg639
(dp1494
g641
(lp1495
S'bumt'
p1496
assg644
(dp1497
g646
(lp1498
S'chsc'
p1499
assg649
(dp1500
g651
(lp1501
S'coky'
p1502
asg654
(lp1503
S'neky'
p1504
asg657
(lp1505
S'luky'
p1506
assg660
(dp1507
g662
(lp1508
S'poor'
p1509
asssI1940
(dp1510
g2
(dp1511
g4
(lp1512
S'riva'
p1513
asg7
(lp1514
S'nova'
p1515
assg10
(dp1516
g12
(lp1517
S'puco'
p1518
asg15
(lp1519
S'deco'
p1520
assg18
(dp1521
S'LosAngeles'
p1522
(lp1523
S'laca'
p1524
asS'SanFrancisco'
p1525
(lp1526
S'sfca'
p1527
asS'SanDiego'
p1528
(lp1529
S'sdca'
p1530
asg29
(lp1531
S'scca'
p1532
asS'SanJose'
p1533
(lp1534
S'sjca'
p1535
asg35
(lp1536
S'paca'
p1537
aS's5ca'
p1538
asg38
(lp1539
S'beca'
p1540
asg41
(lp1541
S'glca'
p1542
asg44
(lp1543
S'oaca'
p1544
asS'LongBeach'
p1545
(lp1546
S'lbca'
p1547
assg50
(dp1548
g52
(lp1549
S'moal'
p1550
asg55
(lp1551
S'bial'
p1552
asg58
(lp1553
S'mnal'
p1554
assg61
(dp1555
S'LittleRock'
p1556
(lp1557
S'lrar'
p1558
assg66
(dp1559
g68
(lp1560
S'roil'
p1561
asS'EastStLouis'
p1562
(lp1563
S'esil'
p1564
asg74
(lp1565
S'chil'
p1566
aS'ceil'
p1567
aS'ncil'
p1568
asg77
(lp1569
S'auil'
p1570
asg80
(lp1571
S'ciil'
p1572
asg83
(lp1573
S'evil'
p1574
asg86
(lp1575
S'joil'
p1576
asS'OakPark'
p1577
(lp1578
S'opil'
p1579
asg92
(lp1580
S'peil'
p1581
asg95
(lp1582
S'spil'
p1583
asg98
(lp1584
S'quil'
p1585
assg101
(dp1586
g103
(lp1587
S'saga'
p1588
asg106
(lp1589
S'atga'
p1590
asg110
(lp1591
S'auga'
p1592
assg113
(dp1593
g115
(lp1594
S'inin'
p1595
asS'FortWayne'
p1596
(lp1597
S'fwin'
p1598
asg121
(lp1599
S'hain'
p1600
asS'SouthBend'
p1601
(lp1602
S'sbin'
p1603
asg127
(lp1604
S'gain'
p1605
asg130
(lp1606
S'evin'
p1607
asS'TerreHaute'
p1608
(lp1609
S'thin'
p1610
assg136
(dp1611
g138
(lp1612
S'daia'
p1613
asS'SiouxCity'
p1614
(lp1615
S'scia'
p1616
asS'DesMoines'
p1617
(lp1618
S'dmia'
p1619
asg147
(lp1620
S'duia'
p1621
assg150
(dp1622
g152
(lp1623
S'phaz'
p1624
assg155
(dp1625
g157
(lp1626
S'brct'
p1627
asg160
(lp1628
S'wact'
p1629
asg163
(lp1630
S'ehct'
p1631
aS'hact'
p1632
aS'wrct'
p1633
asg167
(lp1634
S'mect'
p1635
asS'NewBritain'
p1636
(lp1637
S'nbct'
p1638
asS'NewHaven'
p1639
(lp1640
S'nhct'
p1641
assg176
(dp1642
g178
(lp1643
S'manh'
p1644
assg181
(dp1645
g183
(lp1646
S'trnj'
p1647
asS'AtlanticCity'
p1648
(lp1649
S'acnj'
p1650
asg189
(lp1651
S'psnj'
p1652
asg192
(lp1653
S'banj'
p1654
asg195
(lp1655
S'nenj'
p1656
asg198
(lp1657
S'canj'
p1658
asg201
(lp1659
S'panj'
p1660
asS'JerseyCity'
p1661
(lp1662
S'jcnj'
p1663
asS'EastOrange'
p1664
(lp1665
S'eonj'
p1666
asg210
(lp1667
S'honj'
p1668
asg213
(lp1669
S'elnj'
p1670
assg216
(dp1671
g218
(lp1672
S'gatx'
p1673
asg221
(lp1674
S'hotx'
p1675
asg224
(lp1676
S'datx'
p1677
asS'ElPaso'
p1678
(lp1679
S'eptx'
p1680
asS'SanAntonio'
p1681
(lp1682
S'satx'
p1683
asS'FortWorth'
p1684
(lp1685
S'fwtx'
p1686
asg236
(lp1687
S'autx'
p1688
assg239
(dp1689
S'NewOrleans'
p1690
(lp1691
S'nola'
p1692
asg244
(lp1693
S'shla'
p1694
assg247
(dp1695
g249
(lp1696
S'wsnc'
p1697
asg251
(lp1698
S'chnc'
p1699
assg254
(dp1700
g256
(lp1701
S'line'
p1702
asg259
(lp1703
S'omne'
p1704
assg262
(dp1705
g264
(lp1706
S'chtn'
p1707
asg267
(lp1708
S'kntn'
p1709
asg270
(lp1710
S'metn'
p1711
asg273
(lp1712
S'natn'
p1713
assg276
(dp1714
g278
(lp1715
S'alny'
p1716
asg281
(lp1717
S'rony'
p1718
asS'NewYork'
p1719
(lp1720
sg286
(lp1721
S'buny'
p1722
asS'NiagaraFalls'
p1723
(lp1724
S'niny'
p1725
asg292
(lp1726
S'syny'
p1727
asS'MountVernon'
p1728
(lp1729
S'mvny'
p1730
asg297
(lp1731
S'trny'
p1732
asg300
(lp1733
S'auny'
p1734
asg303
(lp1735
S'elny'
p1736
asg306
(lp1737
S'yony'
p1738
asg309
(lp1739
S'bkny'
p1740
asg312
(lp1741
S'pony'
p1742
asg315
(lp1743
S'scny'
p1744
asg318
(lp1745
S'biny'
p1746
asg321
(lp1747
S'bxny'
p1748
asg324
(lp1749
S'quny'
p1750
asS'StatenIsland'
p1751
(lp1752
S'riny'
p1753
asg330
(lp1754
S'many'
p1755
asg333
(lp1756
S'utny'
p1757
assg336
(dp1758
g338
(lp1759
S'lapa'
p1760
asg341
(lp1761
S'erpa'
p1762
asg344
(lp1763
S'jopa'
p1764
asg347
(lp1765
S'pipa'
p1766
asg350
(lp1767
S'alpa'
p1768
asg353
(lp1769
S'phpa'
p1770
asg356
(lp1771
S'hapa'
p1772
asg359
(lp1773
S'atpa'
p1774
asg362
(lp1775
S'wbpa'
p1776
asg365
(lp1777
S'chpa'
p1778
aS'wcpa'
p1779
asS'NewCastle'
p1780
(lp1781
S'ncpa'
p1782
asg371
(lp1783
S'scpa'
p1784
asg374
(lp1785
sg376
(lp1786
S'repa'
p1787
asg379
(lp1788
S'wlpa'
p1789
asg382
(lp1790
S'yopa'
p1791
asg385
(lp1792
S'mcpa'
p1793
assg388
(dp1794
g390
(lp1795
S'wori'
p1796
asg393
(lp1797
S'epri'
p1798
aS'prri'
p1799
asg397
(lp1800
S'pari'
p1801
assg400
(dp1802
g402
(lp1803
S'sewa'
p1804
asg405
(lp1805
S'spwa'
p1806
asg408
(lp1807
S'tawa'
p1808
assg411
(dp1809
g413
(lp1810
S'wide'
p1811
assg416
(dp1812
g418
(lp1813
S'wadc'
p1814
assg421
(dp1815
g423
(lp1816
g425
asg426
(lp1817
S'suwi'
p1818
asg429
(lp1819
S'mawi'
p1820
asg432
(lp1821
S'oswi'
p1822
asg435
(lp1823
S'miwi'
p1824
aS'smwi'
p1825
asg438
(lp1826
S'rawi'
p1827
assg441
(dp1828
g443
(lp1829
S'chwv'
p1830
asg446
(lp1831
S'h1wv'
p1832
aS'h2wv'
p1833
assg449
(dp1834
g451
(lp1835
S'loma'
p1836
asg454
(lp1837
S'lyma'
p1838
asg457
(lp1839
S'cama'
p1840
asg460
(lp1841
S'quma'
p1842
asg463
(lp1843
S'lama'
p1844
asg466
(lp1845
S'tama'
p1846
asg469
(lp1847
S'boma'
p1848
asg472
(lp1849
S'nema'
p1850
asg475
(lp1851
S'hama'
p1852
asg478
(lp1853
S'woma'
p1854
asg481
(lp1855
S'chma'
p1856
asg484
(lp1857
S'homa'
p1858
asg487
(lp1859
S'sama'
p1860
asg490
(lp1861
S'mama'
p1862
asS'FallRiver'
p1863
(lp1864
S'frma'
p1865
asg496
(lp1866
S'soma'
p1867
asS'NewBedford'
p1868
(lp1869
S'nbma'
p1870
asg502
(lp1871
S'fima'
p1872
asg505
(lp1873
S'bcma'
p1874
asg508
(lp1875
S'spma'
p1876
aS'wpma'
p1877
assg511
(dp1878
g513
(lp1879
S'mifl'
p1880
aS'mbfl'
p1881
asg516
(lp1882
S'jafl'
p1883
asg519
(lp1884
S'tafl'
p1885
assg522
(dp1886
g524
(lp1887
S'pome'
p1888
aS'spme'
p1889
assg527
(dp1890
g529
(lp1891
S'bamd'
p1892
assg532
(dp1893
g534
(lp1894
S'tuok'
p1895
asS'OklahomaCity'
p1896
(lp1897
S'ocok'
p1898
assg540
(dp1899
g542
(lp1900
S'cooh'
p1901
asg545
(lp1902
S'cioh'
p1903
asg548
(lp1904
S'laoh'
p1905
asg551
(lp1906
S'daoh'
p1907
asg554
(lp1908
S'cloh'
p1909
aS'choh'
p1910
aS'ecoh'
p1911
asg559
(lp1912
S'caoh'
p1913
asg562
(lp1914
S'yooh'
p1915
asg565
(lp1916
S'tooh'
p1917
asg568
(lp1918
S'akoh'
p1919
asg571
(lp1920
S'spoh'
p1921
assg574
(dp1922
S'SaltLakeCity'
p1923
(lp1924
S'slut'
p1925
assg579
(dp1926
S'StLouis'
p1927
(lp1928
S'slmo'
p1929
asg584
(lp1930
S'j1mo'
p1931
aS'j2mo'
p1932
asS'StJoseph'
p1933
(lp1934
S'sjmo'
p1935
asS'KansasCity'
p1936
(lp1937
S'kcmo'
p1938
assg594
(dp1939
S'StPaul'
p1940
(lp1941
S'spmn'
p1942
asg599
(lp1943
S'dumn'
p1944
asg602
(lp1945
S'mimn'
p1946
assg605
(dp1947
g607
(lp1948
S'pomi'
p1949
asg610
(lp1950
S'demi'
p1951
aS'edmi'
p1952
asg613
(lp1953
S'lami'
p1954
asg616
(lp1955
S'flmi'
p1956
asS'GrandRapids'
p1957
(lp1958
S'grmi'
p1959
asS'BayCity'
p1960
(lp1961
S'bcmi'
p1962
asg625
(lp1963
S'sami'
p1964
assg628
(dp1965
g630
(lp1966
S'toks'
p1967
asS'KansasCity'
p1968
(lp1969
S'kcks'
p1970
asg636
(lp1971
S'wiks'
p1972
assg639
(dp1973
g641
(lp1974
S'bumt'
p1975
assg644
(dp1976
g646
(lp1977
S'chsc'
p1978
assg649
(dp1979
g651
(lp1980
S'coky'
p1981
asg654
(lp1982
S'neky'
p1983
asg657
(lp1984
S'loky'
p1985
assg660
(dp1986
g662
(lp1987
S'poor'
p1988
asssI1910
(dp1989
g2
(dp1990
g4
(lp1991
S'riva'
p1992
asg7
(lp1993
S'nova'
p1994
assg10
(dp1995
g12
(lp1996
sg15
(lp1997
S'deco'
p1998
assg18
(dp1999
S'LosAngeles'
p2000
(lp2001
S'laca'
p2002
asS'SanFrancisco'
p2003
(lp2004
S'sfca'
p2005
asS'SanDiego'
p2006
(lp2007
S'sdca'
p2008
asg29
(lp2009
sS'SanJose'
p2010
(lp2011
sg35
(lp2012
S'paca'
p2013
asg38
(lp2014
sg41
(lp2015
S'glca'
p2016
asg44
(lp2017
sS'LongBeach'
p2018
(lp2019
S'lbca'
p2020
assg50
(dp2021
g52
(lp2022
sg55
(lp2023
S'bial'
p2024
asg58
(lp2025
ssg61
(dp2026
S'LittleRock'
p2027
(lp2028
ssg66
(dp2029
g68
(lp2030
sS'EastStLouis'
p2031
(lp2032
S'esil'
p2033
asg74
(lp2034
S'chil'
p2035
asg77
(lp2036
sg80
(lp2037
sg83
(lp2038
sg86
(lp2039
sS'OakPark'
p2040
(lp2041
sg92
(lp2042
S'peil'
p2043
asg95
(lp2044
sg98
(lp2045
ssg101
(dp2046
g103
(lp2047
S'saga'
p2048
asg106
(lp2049
S'a1ga'
p2050
asg110
(lp2051
ssg113
(dp2052
g115
(lp2053
S'inin'
p2054
asS'FortWayne'
p2055
(lp2056
S'fwin'
p2057
asg121
(lp2058
sS'SouthBend'
p2059
(lp2060
S'sbin'
p2061
asg127
(lp2062
S'gain'
p2063
asg130
(lp2064
S'evin'
p2065
asS'TerreHaute'
p2066
(lp2067
S'thin'
p2068
assg136
(dp2069
g138
(lp2070
sS'SiouxCity'
p2071
(lp2072
sS'DesMoines'
p2073
(lp2074
S'dmia'
p2075
asg147
(lp2076
ssg150
(dp2077
g152
(lp2078
S'phaz'
p2079
assg155
(dp2080
g157
(lp2081
S'brct'
p2082
asg160
(lp2083
S'wact'
p2084
asg163
(lp2085
S'hact'
p2086
asg167
(lp2087
sS'NewBritain'
p2088
(lp2089
sS'NewHaven'
p2090
(lp2091
S'nhct'
p2092
assg176
(dp2093
g178
(lp2094
S'manh'
p2095
assg181
(dp2096
g183
(lp2097
S'trnj'
p2098
asS'AtlanticCity'
p2099
(lp2100
sg189
(lp2101
S'psnj'
p2102
asg192
(lp2103
S'banj'
p2104
asg195
(lp2105
S'nenj'
p2106
asg198
(lp2107
S'canj'
p2108
asg201
(lp2109
S'panj'
p2110
asS'JerseyCity'
p2111
(lp2112
S'jcnj'
p2113
asS'EastOrange'
p2114
(lp2115
sg210
(lp2116
S'honj'
p2117
asg213
(lp2118
S'elnj'
p2119
assg216
(dp2120
g218
(lp2121
sg221
(lp2122
S'hotx'
p2123
asg224
(lp2124
S'datx'
p2125
asS'ElPaso'
p2126
(lp2127
sS'SanAntonio'
p2128
(lp2129
S'satx'
p2130
asS'FortWorth'
p2131
(lp2132
S'fwtx'
p2133
asg236
(lp2134
ssg239
(dp2135
S'NewOrleans'
p2136
(lp2137
S'nola'
p2138
asg244
(lp2139
ssg247
(dp2140
g249
(lp2141
sg251
(lp2142
S'chnc'
p2143
assg254
(dp2144
g256
(lp2145
sg259
(lp2146
S'omne'
p2147
assg262
(dp2148
g264
(lp2149
sg267
(lp2150
sg270
(lp2151
S'metn'
p2152
asg273
(lp2153
S'natn'
p2154
assg276
(dp2155
g278
(lp2156
S'alny'
p2157
asg281
(lp2158
S'rony'
p2159
asS'NewYork'
p2160
(lp2161
sg286
(lp2162
S'buny'
p2163
asS'NiagaraFalls'
p2164
(lp2165
sg292
(lp2166
S'syny'
p2167
asS'MountVernon'
p2168
(lp2169
sg297
(lp2170
S'trny'
p2171
asg300
(lp2172
sg303
(lp2173
sg306
(lp2174
S'yony'
p2175
asg309
(lp2176
S'bkny'
p2177
asg312
(lp2178
S'pony'
p2179
asg315
(lp2180
S'scny'
p2181
asg318
(lp2182
sg321
(lp2183
S'bxny'
p2184
asg324
(lp2185
S'quny'
p2186
asS'StatenIsland'
p2187
(lp2188
S'riny'
p2189
asg330
(lp2190
S'many'
p2191
asg333
(lp2192
S'utny'
p2193
assg336
(dp2194
g338
(lp2195
sg341
(lp2196
S'erpa'
p2197
asg344
(lp2198
S'jopa'
p2199
asg347
(lp2200
S'pipa'
p2201
asg350
(lp2202
sg353
(lp2203
S'phpa'
p2204
asg356
(lp2205
S'hapa'
p2206
asg359
(lp2207
sg362
(lp2208
sg365
(lp2209
sS'NewCastle'
p2210
(lp2211
sg371
(lp2212
S'scpa'
p2213
asg374
(lp2214
sg376
(lp2215
S'repa'
p2216
asg379
(lp2217
sg382
(lp2218
sg385
(lp2219
ssg388
(dp2220
g390
(lp2221
sg393
(lp2222
S'prri'
p2223
asg397
(lp2224
ssg400
(dp2225
g402
(lp2226
S'sewa'
p2227
asg405
(lp2228
S'spwa'
p2229
asg408
(lp2230
S'tawa'
p2231
assg411
(dp2232
g413
(lp2233
S'wide'
p2234
assg416
(dp2235
g418
(lp2236
S'wadc'
p2237
assg421
(dp2238
g423
(lp2239
sg426
(lp2240
sg429
(lp2241
sg432
(lp2242
sg435
(lp2243
S'miwi'
p2244
asg438
(lp2245
ssg441
(dp2246
g443
(lp2247
sg446
(lp2248
ssg449
(dp2249
g451
(lp2250
S'loma'
p2251
asg454
(lp2252
S'lyma'
p2253
asg457
(lp2254
S'cama'
p2255
asg460
(lp2256
sg463
(lp2257
S'lama'
p2258
asg466
(lp2259
sg469
(lp2260
S'boma'
p2261
asg472
(lp2262
sg475
(lp2263
sg478
(lp2264
S'woma'
p2265
asg481
(lp2266
sg484
(lp2267
S'homa'
p2268
asg487
(lp2269
sg490
(lp2270
sS'FallRiver'
p2271
(lp2272
S'frma'
p2273
asg496
(lp2274
S'soma'
p2275
asS'NewBedford'
p2276
(lp2277
S'nbma'
p2278
asg502
(lp2279
sg505
(lp2280
S'bcma'
p2281
asg508
(lp2282
S'spma'
p2283
assg511
(dp2284
g513
(lp2285
sg516
(lp2286
S'afl'
p2287
asg519
(lp2288
S'afl'
p2289
aS'tfl'
p2290
assg522
(dp2291
g524
(lp2292
S'pome'
p2293
assg527
(dp2294
g529
(lp2295
S'bamd'
p2296
assg532
(dp2297
g534
(lp2298
S'tuok'
p2299
asS'OklahomaCity'
p2300
(lp2301
S'ocok'
p2302
assg540
(dp2303
g542
(lp2304
S'cooh'
p2305
asg545
(lp2306
S'cioh'
p2307
asg548
(lp2308
sg551
(lp2309
S'daoh'
p2310
asg554
(lp2311
S'cloh'
p2312
asg559
(lp2313
S'caoh'
p2314
asg562
(lp2315
S'yooh'
p2316
asg565
(lp2317
S'tooh'
p2318
asg568
(lp2319
S'akoh'
p2320
asg571
(lp2321
ssg574
(dp2322
S'SaltLakeCity'
p2323
(lp2324
S'slut'
p2325
assg579
(dp2326
S'StLouis'
p2327
(lp2328
S'slmo'
p2329
asg584
(lp2330
sS'StJoseph'
p2331
(lp2332
S'sjmo'
p2333
asS'KansasCity'
p2334
(lp2335
S'kcmo'
p2336
assg594
(dp2337
S'StPaul'
p2338
(lp2339
S'spmn'
p2340
asg599
(lp2341
S'dumn'
p2342
asg602
(lp2343
S'mimn'
p2344
assg605
(dp2345
g607
(lp2346
sg610
(lp2347
S'demi'
p2348
asg613
(lp2349
sg616
(lp2350
sS'GrandRapids'
p2351
(lp2352
S'grmi'
p2353
asS'BayCity'
p2354
(lp2355
sg625
(lp2356
ssg628
(dp2357
g630
(lp2358
sS'KansasCity'
p2359
(lp2360
S'kcks'
p2361
asg636
(lp2362
S'wiks'
p2363
assg639
(dp2364
g641
(lp2365
ssg644
(dp2366
g646
(lp2367
S'chsc'
p2368
assg649
(dp2369
g651
(lp2370
sg654
(lp2371
sg657
(lp2372
S'luky'
p2373
assg660
(dp2374
g662
(lp2375
S'poor'
p2376
asss.