(dp0
I1920
(dp1
S'va'
p2
(dp3
S'Richmond'
p4
(lp5
S'riva'
p6
asS'Norfolk'
p7
(lp8
S'nova'
p9
assS'co'
p10
(dp11
S'Pueblo'
p12
(lp13
S'puco'
p14
asS'Denver'
p15
(lp16
S'deco'
p17
assS'ca'
p18
(dp19
S'LosAngeles'
p20
(lp21
S'laca'
p22
asS'SanFrancisco'
p23
(lp24
S'sfca'
p25
asS'SanDiego'
p26
(lp27
S'sdca'
p28
asS'Sacramento'
p29
(lp30
S'scca'
p31
asS'SanJose'
p32
(lp33
S'sjca'
p34
asS'Pasadena'
p35
(lp36
S'paca'
p37
asS'Berkeley'
p38
(lp39
S'beca'
p40
asS'Glendale'
p41
(lp42
S'glca'
p43
asS'Oakland'
p44
(lp45
S'oaca'
p46
asS'LongBeach'
p47
(lp48
S'lbca'
p49
assS'al'
p50
(dp51
S'Mobile'
p52
(lp53
S'moal'
p54
asS'Birmingham'
p55
(lp56
S'bial'
p57
asS'Montgomery'
p58
(lp59
S'mnal'
p60
assS'ar'
p61
(dp62
S'LittleRock'
p63
(lp64
S'lrar'
p65
assS'il'
p66
(dp67
S'Rockford'
p68
(lp69
S'roil'
p70
asS'Quincy'
p71
(lp72
S'quil'
p73
asS'Chicago'
p74
(lp75
S'chil'
p76
asS'Aurora'
p77
(lp78
S'auil'
p79
asS'Cicero'
p80
(lp81
S'ciil'
p82
asS'EastSt.Louis'
p83
(lp84
sS'Evanston'
p85
(lp86
S'evil'
p87
asS'Joliet'
p88
(lp89
S'joil'
p90
asS'OakPark'
p91
(lp92
S'opil'
p93
asS'Peoria'
p94
(lp95
S'peil'
p96
asS'Springfield'
p97
(lp98
S'spil'
p99
assS'ga'
p100
(dp101
S'Savannah'
p102
(lp103
S'saga'
p104
asS'Atlanta'
p105
(lp106
S'a1ga'
p107
aS'a2ga'
p108
asS'Augusta'
p109
(lp110
S'auga'
p111
assS'in'
p112
(dp113
S'Indianapolis'
p114
(lp115
S'inin'
p116
asS'FortWayne'
p117
(lp118
S'fwin'
p119
asS'Hammond'
p120
(lp121
S'hain'
p122
asS'SouthBend'
p123
(lp124
S'sbin'
p125
asS'Gary'
p126
(lp127
S'gain'
p128
asS'Evansville'
p129
(lp130
S'evin'
p131
asS'TerreHaute'
p132
(lp133
S'thin'
p134
assS'ia'
p135
(dp136
S'DesMoines'
p137
(lp138
S'dmia'
p139
asS'SiouxCity'
p140
(lp141
S'siia'
p142
asS'Davenport'
p143
(lp144
S'daia'
p145
asS'Dubuque'
p146
(lp147
S'duia'
p148
assS'az'
p149
(dp150
S'Phoenix'
p151
(lp152
S'phaz'
p153
assS'ct'
p154
(dp155
S'Bridgeport'
p156
(lp157
S'brct'
p158
asS'Waterbury'
p159
(lp160
S'wact'
p161
asS'Hartford'
p162
(lp163
S'hact'
p164
aS'wrct'
p165
asS'Meriden'
p166
(lp167
S'mect'
p168
asS'NewBritain'
p169
(lp170
S'nbct'
p171
asS'NewHaven'
p172
(lp173
S'nhct'
p174
assS'nh'
p175
(dp176
S'Manchester'
p177
(lp178
S'manh'
p179
assS'nj'
p180
(dp181
S'Trenton'
p182
(lp183
S'trnj'
p184
asS'AtlanticCity'
p185
(lp186
S'acnj'
p187
asS'JerseyCity'
p188
(lp189
S'jcnj'
p190
asS'Bayonne'
p191
(lp192
S'banj'
p193
asS'Passaic'
p194
(lp195
S'psnj'
p196
asS'Newark'
p197
(lp198
S'nenj'
p199
asS'Camden'
p200
(lp201
S'canj'
p202
asS'Paterson'
p203
(lp204
S'panj'
p205
asS'Hoboken'
p206
(lp207
S'honj'
p208
asS'EastOrange'
p209
(lp210
S'eonj'
p211
asS'Elizabeth'
p212
(lp213
S'elnj'
p214
assS'tx'
p215
(dp216
S'Galveston'
p217
(lp218
S'gatx'
p219
asS'Houston'
p220
(lp221
S'hotx'
p222
asS'Dallas'
p223
(lp224
S'datx'
p225
asS'SanAntonio'
p226
(lp227
S'satx'
p228
asS'ElPaso'
p229
(lp230
S'eptx'
p231
asS'FortWorth'
p232
(lp233
S'fwtx'
p234
asS'Austin'
p235
(lp236
S'autx'
p237
assS'la'
p238
(dp239
S'Shreveport'
p240
(lp241
S'shla'
p242
asS'NewOrleans'
p243
(lp244
S'nola'
p245
assS'nc'
p246
(dp247
S'Winston-Salem'
p248
(lp249
sS'Charlotte'
p250
(lp251
S'chnc'
p252
assS'ne'
p253
(dp254
S'Lincoln'
p255
(lp256
S'line'
p257
asS'Omaha'
p258
(lp259
S'omne'
p260
assS'tn'
p261
(dp262
S'Chattanooga'
p263
(lp264
S'chtn'
p265
asS'Knoxville'
p266
(lp267
S'kntn'
p268
asS'Memphis'
p269
(lp270
S'metn'
p271
asS'Nashville'
p272
(lp273
S'natn'
p274
assS'ny'
p275
(dp276
S'Albany'
p277
(lp278
S'alny'
p279
asS'Rochester'
p280
(lp281
S'rony'
p282
asS'NewYork'
p283
(lp284
sS'Poughkeepsie'
p285
(lp286
S'pony'
p287
asS'MountVernon'
p288
(lp289
sS'Auburn'
p290
(lp291
S'auny'
p292
asS'Elmira'
p293
(lp294
S'elny'
p295
asS'Yonkers'
p296
(lp297
S'yony'
p298
asS'Troy'
p299
(lp300
S'trny'
p301
asS'NiagaraFalls'
p302
(lp303
S'nfny'
p304
asS'Binghamton'
p305
(lp306
S'biny'
p307
asS'Utica'
p308
(lp309
S'utny'
p310
asS'Buffalo'
p311
(lp312
S'buny'
p313
asS'Schenectady'
p314
(lp315
S'scny'
p316
asS'Syracuse'
p317
(lp318
S'syny'
p319
assS'pa'
p320
(dp321
S'Lancaster'
p322
(lp323
S'lapa'
p324
asS'Reading'
p325
(lp326
S'repa'
p327
asS'Pittsburgh'
p328
(lp329
S'pipa'
p330
asS'Allentown'
p331
(lp332
S'alpa'
p333
asS'Philadelphia'
p334
(lp335
S'phpa'
p336
asS'McKeesport'
p337
(lp338
S'mcpa'
p339
asS'Harrisburg'
p340
(lp341
S'hapa'
p342
asS'Altoona'
p343
(lp344
S'atpa'
p345
asS'Wilkes-Barre'
p346
(lp347
S'wipa'
p348
asS'Chester'
p349
(lp350
S'chpa'
p351
asS'NewCastle'
p352
(lp353
S'ncpa'
p354
asS'Scranton'
p355
(lp356
S'scpa'
p357
asS'Erie'
p358
(lp359
S'erpa'
p360
asS'Williamsport'
p361
(lp362
S'wlpa'
p363
asS'York'
p364
(lp365
S'yopa'
p366
asS'Johnstown'
p367
(lp368
S'jopa'
p369
assS'ri'
p370
(dp371
S'Woonsocket'
p372
(lp373
S'wori'
p374
asS'Providence'
p375
(lp376
S'epri'
p377
aS'prri'
p378
asS'Pawtucket'
p379
(lp380
S'pari'
p381
assS'wa'
p382
(dp383
S'Seattle'
p384
(lp385
S'sewa'
p386
asS'Spokane'
p387
(lp388
S'spwa'
p389
asS'Tacoma'
p390
(lp391
S'tawa'
p392
assS'de'
p393
(dp394
S'Wilmington'
p395
(lp396
S'wide'
p397
assS'dc'
p398
(dp399
S'Washington'
p400
(lp401
S'wadc'
p402
assS'wi'
p403
(dp404
S'LaCrosse'
p405
(lp406
sS'Superior'
p407
(lp408
S'suwi'
p409
asS'Madison'
p410
(lp411
S'mawi'
p412
asS'Oshkosh'
p413
(lp414
S'oswi'
p415
asS'Milwaukee'
p416
(lp417
S'miwi'
p418
asS'Racine'
p419
(lp420
S'rawi'
p421
assS'wv'
p422
(dp423
S'Charleston'
p424
(lp425
S'chwv'
p426
asS'Huntington'
p427
(lp428
S'huwv'
p429
assS'ok'
p430
(dp431
S'Tulsa'
p432
(lp433
S'tuok'
p434
asS'OklahomaCity'
p435
(lp436
S'ocok'
p437
assS'fl'
p438
(dp439
S'Miami'
p440
(lp441
S'mifl'
p442
asS'Jacksonville'
p443
(lp444
S'jafl'
p445
asS'Tampa'
p446
(lp447
S'tafl'
p448
assS'me'
p449
(dp450
S'Portland'
p451
(lp452
S'pome'
p453
assS'md'
p454
(dp455
S'Baltimore'
p456
(lp457
S'bamd'
p458
assS'ma'
p459
(dp460
S'Lowell'
p461
(lp462
S'loma'
p463
asS'Lynn'
p464
(lp465
S'lyma'
p466
asS'Cambridge'
p467
(lp468
S'cama'
p469
asS'Quincy'
p470
(lp471
S'quma'
p472
asS'Springfield'
p473
(lp474
S'spma'
p475
asS'Lawrence'
p476
(lp477
S'lama'
p478
asS'Taunton'
p479
(lp480
S'tama'
p481
asS'Boston'
p482
(lp483
S'boma'
p484
asS'Newton'
p485
(lp486
S'nema'
p487
asS'Haverhill'
p488
(lp489
S'hama'
p490
asS'Worcester'
p491
(lp492
S'woma'
p493
asS'Holyoke'
p494
(lp495
S'homa'
p496
asS'Salem'
p497
(lp498
S'sama'
p499
asS'Malden'
p500
(lp501
S'mama'
p502
asS'FallRiver'
p503
(lp504
S'frma'
p505
asS'Brockton'
p506
(lp507
S'bcma'
p508
asS'Somerville'
p509
(lp510
S'soma'
p511
asS'Fitchburg'
p512
(lp513
S'fima'
p514
asS'Chelsea'
p515
(lp516
S'chma'
p517
asS'NewBedford'
p518
(lp519
S'nbma'
p520
assS'oh'
p521
(dp522
S'Columbus'
p523
(lp524
S'cooh'
p525
asS'Cincinnati'
p526
(lp527
S'cioh'
p528
asS'Lakewood'
p529
(lp530
S'laoh'
p531
asS'Dayton'
p532
(lp533
S'daoh'
p534
asS'Toledo'
p535
(lp536
S'tooh'
p537
asS'Canton'
p538
(lp539
S'caoh'
p540
asS'Youngstown'
p541
(lp542
S'yooh'
p543
asS'Cleveland'
p544
(lp545
S'cloh'
p546
aS'choh'
p547
aS'ecoh'
p548
asS'Akron'
p549
(lp550
S'akoh'
p551
asS'Springfield'
p552
(lp553
S'spoh'
p554
assS'ut'
p555
(dp556
S'SaltLakeCity'
p557
(lp558
S'slut'
p559
assS'mo'
p560
(dp561
S'StLouis'
p562
(lp563
S'slmo'
p564
asS'Joplin'
p565
(lp566
S'j1mo'
p567
aS'j2mo'
p568
asS'StJoseph'
p569
(lp570
S'sjmo'
p571
asS'KansasCity'
p572
(lp573
S'kcmo'
p574
assS'mn'
p575
(dp576
S'StPaul'
p577
(lp578
S'spmn'
p579
asS'Duluth'
p580
(lp581
S'dumn'
p582
assS'mi'
p583
(dp584
S'Pontiac'
p585
(lp586
S'pomi'
p587
asS'Detroit'
p588
(lp589
S'demi'
p590
asS'Lansing'
p591
(lp592
S'lami'
p593
asS'Flint'
p594
(lp595
S'flmi'
p596
asS'GrandRapids'
p597
(lp598
S'grmi'
p599
asS'BayCity'
p600
(lp601
S'bcmi'
p602
asS'Saginaw'
p603
(lp604
S'sami'
p605
assS'ks'
p606
(dp607
S'Wichita'
p608
(lp609
S'wiks'
p610
asS'KansasCity'
p611
(lp612
S'kcks'
p613
asS'Topeka'
p614
(lp615
S'toks'
p616
assS'mt'
p617
(dp618
S'Butte'
p619
(lp620
S'bumt'
p621
assS'sc'
p622
(dp623
S'Charleston'
p624
(lp625
S'chsc'
p626
assS'ky'
p627
(dp628
S'Covington'
p629
(lp630
S'coky'
p631
asS'Newport'
p632
(lp633
S'neky'
p634
asS'Louisville'
p635
(lp636
S'luky'
p637
assS'or'
p638
(dp639
S'Portland'
p640
(lp641
S'poor'
p642
asssI1940
(dp643
g2
(dp644
g4
(lp645
S'riva'
p646
asg7
(lp647
S'nova'
p648
assg10
(dp649
g12
(lp650
S'puco'
p651
asg15
(lp652
S'deco'
p653
assg18
(dp654
S'LosAngeles'
p655
(lp656
S'laca'
p657
asS'SanFrancisco'
p658
(lp659
S'sfca'
p660
asS'SanDiego'
p661
(lp662
S'sdca'
p663
asg29
(lp664
S'scca'
p665
asS'SanJose'
p666
(lp667
S'sjca'
p668
asg35
(lp669
S'paca'
p670
aS's5ca'
p671
asg38
(lp672
S'beca'
p673
asg41
(lp674
S'glca'
p675
asg44
(lp676
S'oaca'
p677
asS'LongBeach'
p678
(lp679
S'lbca'
p680
assg50
(dp681
g52
(lp682
S'moal'
p683
asg55
(lp684
S'bial'
p685
asg58
(lp686
S'mnal'
p687
assg61
(dp688
S'LittleRock'
p689
(lp690
S'lrar'
p691
assg66
(dp692
g68
(lp693
S'roil'
p694
asg71
(lp695
S'quil'
p696
asg74
(lp697
S'chil'
p698
aS'ceil'
p699
aS'ncil'
p700
asg77
(lp701
S'auil'
p702
asg80
(lp703
S'ciil'
p704
asS'EastSt.Louis'
p705
(lp706
sg85
(lp707
S'evil'
p708
asg88
(lp709
S'joil'
p710
asS'OakPark'
p711
(lp712
S'opil'
p713
asg94
(lp714
S'peil'
p715
asg97
(lp716
S'spil'
p717
assg100
(dp718
g102
(lp719
S'saga'
p720
asg105
(lp721
S'atga'
p722
asg109
(lp723
S'auga'
p724
assg112
(dp725
g114
(lp726
S'inin'
p727
asS'FortWayne'
p728
(lp729
S'fwin'
p730
asg120
(lp731
S'hain'
p732
asS'SouthBend'
p733
(lp734
S'sbin'
p735
asg126
(lp736
S'gain'
p737
asg129
(lp738
S'evin'
p739
asS'TerreHaute'
p740
(lp741
S'thin'
p742
assg135
(dp743
S'DesMoines'
p744
(lp745
S'dmia'
p746
asS'SiouxCity'
p747
(lp748
S'scia'
p749
asg143
(lp750
S'daia'
p751
asg146
(lp752
S'duia'
p753
assg149
(dp754
g151
(lp755
S'phaz'
p756
assg154
(dp757
g156
(lp758
S'brct'
p759
asg159
(lp760
S'wact'
p761
asg162
(lp762
S'ehct'
p763
aS'hact'
p764
aS'wrct'
p765
asg166
(lp766
S'mect'
p767
asS'NewBritain'
p768
(lp769
S'nbct'
p770
asS'NewHaven'
p771
(lp772
S'nhct'
p773
assg175
(dp774
g177
(lp775
S'manh'
p776
assg180
(dp777
g182
(lp778
S'trnj'
p779
asS'AtlanticCity'
p780
(lp781
S'acnj'
p782
asS'JerseyCity'
p783
(lp784
S'jcnj'
p785
asg191
(lp786
S'banj'
p787
asg194
(lp788
S'psnj'
p789
asg197
(lp790
S'nenj'
p791
asg200
(lp792
S'canj'
p793
asg203
(lp794
S'panj'
p795
asg206
(lp796
S'honj'
p797
asS'EastOrange'
p798
(lp799
S'eonj'
p800
asg212
(lp801
S'elnj'
p802
assg215
(dp803
g217
(lp804
S'gatx'
p805
asg220
(lp806
S'hotx'
p807
asg223
(lp808
S'datx'
p809
asS'SanAntonio'
p810
(lp811
S'satx'
p812
asS'ElPaso'
p813
(lp814
S'eptx'
p815
asS'FortWorth'
p816
(lp817
S'fwtx'
p818
asg235
(lp819
S'autx'
p820
assg238
(dp821
g240
(lp822
S'shla'
p823
asS'NewOrleans'
p824
(lp825
S'nola'
p826
assg246
(dp827
g248
(lp828
S'wsnc'
p829
asg250
(lp830
S'chnc'
p831
assg253
(dp832
g255
(lp833
S'line'
p834
asg258
(lp835
S'omne'
p836
assg261
(dp837
g263
(lp838
S'chtn'
p839
asg266
(lp840
S'kntn'
p841
asg269
(lp842
S'metn'
p843
asg272
(lp844
S'natn'
p845
assg275
(dp846
g277
(lp847
S'alny'
p848
asg280
(lp849
S'rony'
p850
asS'NewYork'
p851
(lp852
sg285
(lp853
S'pony'
p854
asS'MountVernon'
p855
(lp856
S'mvny'
p857
asg290
(lp858
S'auny'
p859
asg293
(lp860
S'elny'
p861
asg296
(lp862
S'yony'
p863
asg299
(lp864
S'trny'
p865
asS'NiagaraFalls'
p866
(lp867
S'niny'
p868
asg305
(lp869
S'biny'
p870
asg308
(lp871
S'utny'
p872
asg311
(lp873
S'buny'
p874
asg314
(lp875
S'scny'
p876
asg317
(lp877
S'syny'
p878
assg320
(dp879
g322
(lp880
S'lapa'
p881
asg325
(lp882
S'repa'
p883
asg328
(lp884
S'pipa'
p885
asg331
(lp886
S'alpa'
p887
asg334
(lp888
S'phpa'
p889
asg337
(lp890
S'mcpa'
p891
asg340
(lp892
S'hapa'
p893
asg343
(lp894
S'atpa'
p895
asg346
(lp896
S'wbpa'
p897
asg349
(lp898
S'chpa'
p899
aS'wcpa'
p900
asS'NewCastle'
p901
(lp902
S'ncpa'
p903
asg355
(lp904
S'scpa'
p905
asg358
(lp906
S'erpa'
p907
asg361
(lp908
S'wlpa'
p909
asg364
(lp910
S'yopa'
p911
asg367
(lp912
S'jopa'
p913
assg370
(dp914
g372
(lp915
S'wori'
p916
asg375
(lp917
S'epri'
p918
aS'prri'
p919
asg379
(lp920
S'pari'
p921
assg382
(dp922
g384
(lp923
S'sewa'
p924
asg387
(lp925
S'spwa'
p926
asg390
(lp927
S'tawa'
p928
assg393
(dp929
g395
(lp930
S'wide'
p931
assg398
(dp932
g400
(lp933
S'wa" selectedc'
p934
assg403
(dp935
g405
(lp936
sg407
(lp937
S'suwi'
p938
asg410
(lp939
S'mawi'
p940
asg413
(lp941
S'oswi'
p942
asg416
(lp943
S'miwi'
p944
aS'smwi'
p945
asg419
(lp946
S'rawi'
p947
assg422
(dp948
g424
(lp949
S'chwv'
p950
asg427
(lp951
S'h1wv'
p952
aS'h2wv'
p953
assg430
(dp954
g432
(lp955
S'tuok'
p956
asS'OklahomaCity'
p957
(lp958
S'ocok'
p959
assg438
(dp960
g440
(lp961
S'mifl'
p962
aS'mbfl'
p963
asg443
(lp964
S'jafl'
p965
asg446
(lp966
S'tafl'
p967
assg449
(dp968
g451
(lp969
S'pome'
p970
aS'spme'
p971
assg454
(dp972
g456
(lp973
S'bamd'
p974
assg459
(dp975
g461
(lp976
S'loma'
p977
asg464
(lp978
S'lyma'
p979
asg467
(lp980
S'cama'
p981
asg470
(lp982
S'quma'
p983
asg473
(lp984
S'spma'
p985
aS'wpma'
p986
asg476
(lp987
S'lama'
p988
asg479
(lp989
S'tama'
p990
asg482
(lp991
S'boma'
p992
asg485
(lp993
S'nema'
p994
asg488
(lp995
S'hama'
p996
asg491
(lp997
S'woma'
p998
asg494
(lp999
S'homa'
p1000
asg497
(lp1001
S'sama'
p1002
asg500
(lp1003
S'mama'
p1004
asS'FallRiver'
p1005
(lp1006
S'frma'
p1007
asg506
(lp1008
S'bcma'
p1009
asg509
(lp1010
S'soma'
p1011
asg512
(lp1012
S'fima'
p1013
asg515
(lp1014
S'chma'
p1015
asS'NewBedford'
p1016
(lp1017
S'nbma'
p1018
assg521
(dp1019
g523
(lp1020
S'cooh'
p1021
asg526
(lp1022
S'cioh'
p1023
asg529
(lp1024
S'laoh'
p1025
asg532
(lp1026
S'daoh'
p1027
asg535
(lp1028
S'tooh'
p1029
asg538
(lp1030
S'caoh'
p1031
asg541
(lp1032
S'yooh'
p1033
asg544
(lp1034
S'cloh'
p1035
aS'choh'
p1036
aS'ecoh'
p1037
asg549
(lp1038
S'akoh'
p1039
asg552
(lp1040
S'spoh'
p1041
assg555
(dp1042
S'SaltLakeCity'
p1043
(lp1044
S'slut'
p1045
assg560
(dp1046
S'StLouis'
p1047
(lp1048
S'slmo'
p1049
asg565
(lp1050
S'j1mo'
p1051
aS'j2mo'
p1052
asS'StJoseph'
p1053
(lp1054
S'sjmo'
p1055
asS'KansasCity'
p1056
(lp1057
S'kcmo'
p1058
assg575
(dp1059
S'StPaul'
p1060
(lp1061
S'spmn'
p1062
asg580
(lp1063
S'dumn'
p1064
assg583
(dp1065
g585
(lp1066
S'pomi'
p1067
asg588
(lp1068
S'demi'
p1069
aS'edmi'
p1070
asg591
(lp1071
S'lami'
p1072
asg594
(lp1073
S'flmi'
p1074
asS'GrandRapids'
p1075
(lp1076
S'grmi'
p1077
asS'BayCity'
p1078
(lp1079
S'bcmi'
p1080
asg603
(lp1081
S'sami'
p1082
assg606
(dp1083
g608
(lp1084
S'wiks'
p1085
asS'KansasCity'
p1086
(lp1087
S'kcks'
p1088
asg614
(lp1089
S'toks'
p1090
assg617
(dp1091
g619
(lp1092
S'bumt'
p1093
assg622
(dp1094
g624
(lp1095
S'chsc'
p1096
assg627
(dp1097
g629
(lp1098
S'coky'
p1099
asg632
(lp1100
S'neky'
p1101
asg635
(lp1102
S'loky'
p1103
assg638
(dp1104
g640
(lp1105
S'poor'
p1106
asssI1930
(dp1107
g2
(dp1108
g4
(lp1109
S'riva'
p1110
asg7
(lp1111
S'nova'
p1112
assg10
(dp1113
g12
(lp1114
S'puco'
p1115
asg15
(lp1116
S'deco'
p1117
assg18
(dp1118
S'LosAngeles'
p1119
(lp1120
S'laca'
p1121
asS'SanFrancisco'
p1122
(lp1123
S'sfca'
p1124
asS'SanDiego'
p1125
(lp1126
S'sdca'
p1127
asg29
(lp1128
S'scca'
p1129
asS'SanJose'
p1130
(lp1131
S'sjca'
p1132
asg35
(lp1133
S'paca'
p1134
asg38
(lp1135
S'beca'
p1136
asg41
(lp1137
S'glca'
p1138
asg44
(lp1139
S'oaca'
p1140
asS'LongBeach'
p1141
(lp1142
S'lbca'
p1143
assg50
(dp1144
g52
(lp1145
S'moal'
p1146
asg55
(lp1147
S'bial'
p1148
asg58
(lp1149
S'mnal'
p1150
assg61
(dp1151
S'LittleRock'
p1152
(lp1153
S'lrar'
p1154
assg66
(dp1155
g68
(lp1156
S'roil'
p1157
asg71
(lp1158
S'quil'
p1159
asg74
(lp1160
S'chil'
p1161
asg77
(lp1162
S'auil'
p1163
asg80
(lp1164
S'ciil'
p1165
asS'EastSt.Louis'
p1166
(lp1167
sg85
(lp1168
S'evil'
p1169
asg88
(lp1170
S'joil'
p1171
asS'OakPark'
p1172
(lp1173
S'opil'
p1174
asg94
(lp1175
S'peil'
p1176
asg97
(lp1177
S'spil'
p1178
assg100
(dp1179
g102
(lp1180
S'saga'
p1181
asg105
(lp1182
S'a1ga'
p1183
aS'a2ga'
p1184
asg109
(lp1185
S'auga'
p1186
assg112
(dp1187
g114
(lp1188
S'inin'
p1189
asS'FortWayne'
p1190
(lp1191
S'fwin'
p1192
asg120
(lp1193
S'hain'
p1194
asS'SouthBend'
p1195
(lp1196
S'sbin'
p1197
asg126
(lp1198
S'gain'
p1199
asg129
(lp1200
S'evin'
p1201
asS'TerreHaute'
p1202
(lp1203
S'thin'
p1204
assg135
(dp1205
S'DesMoines'
p1206
(lp1207
S'dmia'
p1208
asS'SiouxCity'
p1209
(lp1210
S'siia'
p1211
asg143
(lp1212
S'daia'
p1213
asg146
(lp1214
S'duia'
p1215
assg149
(dp1216
g151
(lp1217
S'phaz'
p1218
assg154
(dp1219
g156
(lp1220
S'brct'
p1221
asg159
(lp1222
S'wact'
p1223
asg162
(lp1224
S'hact'
p1225
aS'wrct'
p1226
asg166
(lp1227
S'mect'
p1228
asS'NewBritain'
p1229
(lp1230
S'nbct'
p1231
asS'NewHaven'
p1232
(lp1233
S'nhct'
p1234
assg175
(dp1235
g177
(lp1236
S'manh'
p1237
assg180
(dp1238
g182
(lp1239
S'trnj'
p1240
asS'AtlanticCity'
p1241
(lp1242
S'acnj'
p1243
asS'JerseyCity'
p1244
(lp1245
S'jcnj'
p1246
asg191
(lp1247
S'banj'
p1248
asg194
(lp1249
S'psnj'
p1250
asg197
(lp1251
S'nenj'
p1252
asg200
(lp1253
S'canj'
p1254
asg203
(lp1255
S'panj'
p1256
asg206
(lp1257
S'honj'
p1258
asS'EastOrange'
p1259
(lp1260
S'eonj'
p1261
asg212
(lp1262
S'elnj'
p1263
assg215
(dp1264
g217
(lp1265
S'gatx'
p1266
asg220
(lp1267
S'hotx'
p1268
asg223
(lp1269
S'datx'
p1270
asS'SanAntonio'
p1271
(lp1272
S'satx'
p1273
asS'ElPaso'
p1274
(lp1275
S'eptx'
p1276
asS'FortWorth'
p1277
(lp1278
S'fwtx'
p1279
asg235
(lp1280
S'autx'
p1281
assg238
(dp1282
g240
(lp1283
S'shla'
p1284
asS'NewOrleans'
p1285
(lp1286
S'nola'
p1287
assg246
(dp1288
g248
(lp1289
sg250
(lp1290
S'chnc'
p1291
assg253
(dp1292
g255
(lp1293
S'line'
p1294
asg258
(lp1295
S'omne'
p1296
assg261
(dp1297
g263
(lp1298
S'chtn'
p1299
asg266
(lp1300
S'kntn'
p1301
asg269
(lp1302
S'metn'
p1303
asg272
(lp1304
S'natn'
p1305
assg275
(dp1306
g277
(lp1307
S'alny'
p1308
asg280
(lp1309
S'rony'
p1310
asS'NewYork'
p1311
(lp1312
sg285
(lp1313
S'pony'
p1314
asS'MountVernon'
p1315
(lp1316
sg290
(lp1317
S'auny'
p1318
asg293
(lp1319
S'elny'
p1320
asg296
(lp1321
S'yony'
p1322
asg299
(lp1323
S'trny'
p1324
asS'NiagaraFalls'
p1325
(lp1326
S'nfny'
p1327
asg305
(lp1328
S'biny'
p1329
asg308
(lp1330
S'utny'
p1331
asg311
(lp1332
S'buny'
p1333
asg314
(lp1334
S'scny'
p1335
asg317
(lp1336
S'syny'
p1337
assg320
(dp1338
g322
(lp1339
S'lapa'
p1340
asg325
(lp1341
S'repa'
p1342
asg328
(lp1343
S'pipa'
p1344
asg331
(lp1345
S'alpa'
p1346
asg334
(lp1347
S'phpa'
p1348
asg337
(lp1349
S'mcpa'
p1350
asg340
(lp1351
S'hapa'
p1352
asg343
(lp1353
S'atpa'
p1354
asg346
(lp1355
S'wipa'
p1356
asg349
(lp1357
S'chpa'
p1358
asS'NewCastle'
p1359
(lp1360
S'ncpa'
p1361
asg355
(lp1362
S'scpa'
p1363
asg358
(lp1364
S'erpa'
p1365
asg361
(lp1366
S'wlpa'
p1367
asg364
(lp1368
S'yopa'
p1369
asg367
(lp1370
S'jopa'
p1371
assg370
(dp1372
g372
(lp1373
S'wori'
p1374
asg375
(lp1375
S'epri'
p1376
aS'prri'
p1377
asg379
(lp1378
S'pari'
p1379
assg382
(dp1380
g384
(lp1381
S'sewa'
p1382
asg387
(lp1383
S'spwa'
p1384
asg390
(lp1385
S'tawa'
p1386
assg393
(dp1387
g395
(lp1388
S'wide'
p1389
assg398
(dp1390
g400
(lp1391
S'wadc'
p1392
assg403
(dp1393
g405
(lp1394
sg407
(lp1395
S'suwi'
p1396
asg410
(lp1397
S'mawi'
p1398
asg413
(lp1399
S'oswi'
p1400
asg416
(lp1401
S'miwi'
p1402
asg419
(lp1403
S'rawi'
p1404
assg422
(dp1405
g424
(lp1406
S'chwv'
p1407
asg427
(lp1408
S'huwv'
p1409
assg430
(dp1410
g432
(lp1411
S'tuok'
p1412
asS'OklahomaCity'
p1413
(lp1414
S'ocok'
p1415
assg438
(dp1416
g440
(lp1417
S'mifl'
p1418
asg443
(lp1419
S'jafl'
p1420
asg446
(lp1421
S'tafl'
p1422
assg449
(dp1423
g451
(lp1424
S'pome'
p1425
assg454
(dp1426
g456
(lp1427
S'bamd'
p1428
assg459
(dp1429
g461
(lp1430
S'loma'
p1431
asg464
(lp1432
S'lyma'
p1433
asg467
(lp1434
S'cama'
p1435
asg470
(lp1436
S'quma'
p1437
asg473
(lp1438
S'spma'
p1439
asg476
(lp1440
S'lama'
p1441
asg479
(lp1442
S'tama'
p1443
asg482
(lp1444
S'boma'
p1445
asg485
(lp1446
S'nema'
p1447
asg488
(lp1448
S'hama'
p1449
asg491
(lp1450
S'woma'
p1451
asg494
(lp1452
S'homa'
p1453
asg497
(lp1454
S'sama'
p1455
asg500
(lp1456
S'mama'
p1457
asS'FallRiver'
p1458
(lp1459
S'frma'
p1460
asg506
(lp1461
S'bcma'
p1462
asg509
(lp1463
S'soma'
p1464
asg512
(lp1465
S'fima'
p1466
asg515
(lp1467
S'chma'
p1468
asS'NewBedford'
p1469
(lp1470
S'nbma'
p1471
assg521
(dp1472
g523
(lp1473
S'cooh'
p1474
asg526
(lp1475
S'cioh'
p1476
asg529
(lp1477
S'laoh'
p1478
asg532
(lp1479
S'daoh'
p1480
asg535
(lp1481
S'tooh'
p1482
asg538
(lp1483
S'caoh'
p1484
asg541
(lp1485
S'yooh'
p1486
asg544
(lp1487
S'cloh'
p1488
aS'choh'
p1489
aS'ecoh'
p1490
asg549
(lp1491
S'akoh'
p1492
asg552
(lp1493
S'spoh'
p1494
assg555
(dp1495
S'SaltLakeCity'
p1496
(lp1497
S'slut'
p1498
assg560
(dp1499
S'StLouis'
p1500
(lp1501
S'slmo'
p1502
asg565
(lp1503
S'j1mo'
p1504
aS'j2mo'
p1505
asS'StJoseph'
p1506
(lp1507
S'sjmo'
p1508
asS'KansasCity'
p1509
(lp1510
S'kcmo'
p1511
assg575
(dp1512
S'StPaul'
p1513
(lp1514
S'spmn'
p1515
asg580
(lp1516
S'dumn'
p1517
assg583
(dp1518
g585
(lp1519
S'pomi'
p1520
asg588
(lp1521
S'demi'
p1522
asg591
(lp1523
S'lami'
p1524
asg594
(lp1525
S'flmi'
p1526
asS'GrandRapids'
p1527
(lp1528
S'grmi'
p1529
asS'BayCity'
p1530
(lp1531
S'bcmi'
p1532
asg603
(lp1533
S'sami'
p1534
assg606
(dp1535
g608
(lp1536
S'wiks'
p1537
asS'KansasCity'
p1538
(lp1539
S'kcks'
p1540
asg614
(lp1541
S'toks'
p1542
assg617
(dp1543
g619
(lp1544
S'bumt'
p1545
assg622
(dp1546
g624
(lp1547
S'chsc'
p1548
assg627
(dp1549
g629
(lp1550
S'coky'
p1551
asg632
(lp1552
S'neky'
p1553
asg635
(lp1554
S'luky'
p1555
assg638
(dp1556
g640
(lp1557
S'poor'
p1558
asssI1900
(dp1559
g2
(dp1560
g4
(lp1561
S'riva'
p1562
asg7
(lp1563
S'nova'
p1564
assg10
(dp1565
g12
(lp1566
sg15
(lp1567
S'deco'
p1568
assg18
(dp1569
S'LosAngeles'
p1570
(lp1571
S'laca'
p1572
asS'SanFrancisco'
p1573
(lp1574
S'sfca'
p1575
asS'SanDiego'
p1576
(lp1577
sg29
(lp1578
sS'SanJose'
p1579
(lp1580
sg35
(lp1581
sg38
(lp1582
sg41
(lp1583
sg44
(lp1584
S'oaca'
p1585
asS'LongBeach'
p1586
(lp1587
ssg50
(dp1588
g52
(lp1589
S'moal'
p1590
asg55
(lp1591
S'bial'
p1592
asg58
(lp1593
ssg61
(dp1594
S'LittleRock'
p1595
(lp1596
S'lrar'
p1597
assg66
(dp1598
g68
(lp1599
sg71
(lp1600
sg74
(lp1601
S'chil'
p1602
asg77
(lp1603
sg80
(lp1604
sS'EastSt.Louis'
p1605
(lp1606
sg85
(lp1607
S'evil'
p1608
asg88
(lp1609
sS'OakPark'
p1610
(lp1611
sg94
(lp1612
S'peil'
p1613
asg97
(lp1614
ssg100
(dp1615
g102
(lp1616
S'saga'
p1617
asg105
(lp1618
S'a1ga'
p1619
asg109
(lp1620
S'auga'
p1621
assg112
(dp1622
g114
(lp1623
S'inin'
p1624
asS'FortWayne'
p1625
(lp1626
S'fwin'
p1627
asg120
(lp1628
sS'SouthBend'
p1629
(lp1630
sg126
(lp1631
sg129
(lp1632
S'evin'
p1633
asS'TerreHaute'
p1634
(lp1635
ssg135
(dp1636
S'DesMoines'
p1637
(lp1638
S'dmia'
p1639
asS'SiouxCity'
p1640
(lp1641
sg143
(lp1642
sg146
(lp1643
ssg149
(dp1644
g151
(lp1645
ssg154
(dp1646
g156
(lp1647
S'brct'
p1648
asg159
(lp1649
S'wact'
p1650
asg162
(lp1651
S'hact'
p1652
asg166
(lp1653
sS'NewBritain'
p1654
(lp1655
sS'NewHaven'
p1656
(lp1657
S'nhct'
p1658
assg175
(dp1659
g177
(lp1660
S'manh'
p1661
assg180
(dp1662
g182
(lp1663
S'trnj'
p1664
asS'AtlanticCity'
p1665
(lp1666
sS'JerseyCity'
p1667
(lp1668
S'jcnj'
p1669
asg191
(lp1670
sg194
(lp1671
sg197
(lp1672
S'nenj'
p1673
asg200
(lp1674
S'canj'
p1675
asg203
(lp1676
S'panj'
p1677
asg206
(lp1678
S'honj'
p1679
asS'EastOrange'
p1680
(lp1681
sg212
(lp1682
S'elnj'
p1683
assg215
(dp1684
g217
(lp1685
sg220
(lp1686
S'hotx'
p1687
asg223
(lp1688
S'datx'
p1689
asS'SanAntonio'
p1690
(lp1691
S'satx'
p1692
asS'ElPaso'
p1693
(lp1694
sS'FortWorth'
p1695
(lp1696
sg235
(lp1697
ssg238
(dp1698
g240
(lp1699
sS'NewOrleans'
p1700
(lp1701
S'nola'
p1702
assg246
(dp1703
g248
(lp1704
sg250
(lp1705
ssg253
(dp1706
g255
(lp1707
S'line'
p1708
asg258
(lp1709
S'omne'
p1710
assg261
(dp1711
g263
(lp1712
sg266
(lp1713
sg269
(lp1714
S'metn'
p1715
asg272
(lp1716
S'natn'
p1717
assg275
(dp1718
g277
(lp1719
S'alny'
p1720
asg280
(lp1721
S'rony'
p1722
asS'NewYork'
p1723
(lp1724
sg285
(lp1725
sS'MountVernon'
p1726
(lp1727
sg290
(lp1728
sg293
(lp1729
sg296
(lp1730
S'yony'
p1731
asg299
(lp1732
S'trny'
p1733
asS'NiagaraFalls'
p1734
(lp1735
sg305
(lp1736
S'biny'
p1737
asg308
(lp1738
S'utny'
p1739
asg311
(lp1740
S'buny'
p1741
asg314
(lp1742
sg317
(lp1743
S'syny'
p1744
assg320
(dp1745
g322
(lp1746
S'lapa'
p1747
asg325
(lp1748
S'repa'
p1749
asg328
(lp1750
S'pipa'
p1751
asg331
(lp1752
sg334
(lp1753
S'phpa'
p1754
asg337
(lp1755
S'mcpa'
p1756
asg340
(lp1757
S'hapa'
p1758
asg343
(lp1759
S'atpa'
p1760
asg346
(lp1761
S'wipa'
p1762
asg349
(lp1763
sS'NewCastle'
p1764
(lp1765
sg355
(lp1766
S'scpa'
p1767
asg358
(lp1768
S'erpa'
p1769
asg361
(lp1770
sg364
(lp1771
sg367
(lp1772
ssg370
(dp1773
g372
(lp1774
sg375
(lp1775
S'prri'
p1776
asg379
(lp1777
S'pari'
p1778
assg382
(dp1779
g384
(lp1780
S'sewa'
p1781
asg387
(lp1782
sg390
(lp1783
ssg393
(dp1784
g395
(lp1785
S'wide'
p1786
assg398
(dp1787
g400
(lp1788
S'wadc'
p1789
assg403
(dp1790
g405
(lp1791
sg407
(lp1792
sg410
(lp1793
sg413
(lp1794
sg416
(lp1795
S'miwi'
p1796
asg419
(lp1797
ssg422
(dp1798
g424
(lp1799
sg427
(lp1800
ssg430
(dp1801
g432
(lp1802
sS'OklahomaCity'
p1803
(lp1804
ssg438
(dp1805
g440
(lp1806
sg443
(lp1807
sg446
(lp1808
ssg449
(dp1809
g451
(lp1810
S'pome'
p1811
assg454
(dp1812
g456
(lp1813
S'bamd'
p1814
assg459
(dp1815
g461
(lp1816
S'loma'
p1817
asg464
(lp1818
S'lyma'
p1819
asg467
(lp1820
S'cama'
p1821
asg470
(lp1822
sg473
(lp1823
S'spma'
p1824
asg476
(lp1825
S'lama'
p1826
asg479
(lp1827
sg482
(lp1828
S'boma'
p1829
asg485
(lp1830
sg488
(lp1831
sg491
(lp1832
S'woma'
p1833
asg494
(lp1834
S'homa'
p1835
asg497
(lp1836
sg500
(lp1837
sS'FallRiver'
p1838
(lp1839
S'frma'
p1840
asg506
(lp1841
sg509
(lp1842
S'soma'
p1843
asg512
(lp1844
sg515
(lp1845
sS'NewBedford'
p1846
(lp1847
S'nbma'
p1848
assg521
(dp1849
g523
(lp1850
S'cooh'
p1851
asg526
(lp1852
S'cioh'
p1853
asg529
(lp1854
sg532
(lp1855
S'daoh'
p1856
asg535
(lp1857
S'tooh'
p1858
asg538
(lp1859
S'caoh'
p1860
asg541
(lp1861
S'yooh'
p1862
asg544
(lp1863
S'cloh'
p1864
asg549
(lp1865
S'akoh'
p1866
asg552
(lp1867
ssg555
(dp1868
S'SaltLakeCity'
p1869
(lp1870
S'slut'
p1871
assg560
(dp1872
S'StLouis'
p1873
(lp1874
S'slmo'
p1875
asg565
(lp1876
sS'StJoseph'
p1877
(lp1878
S'sjmo'
p1879
asS'KansasCity'
p1880
(lp1881
S'kcmo'
p1882
assg575
(dp1883
S'StPaul'
p1884
(lp1885
S'spmn'
p1886
asg580
(lp1887
S'dumn'
p1888
assg583
(dp1889
g585
(lp1890
sg588
(lp1891
S'demi'
p1892
asg591
(lp1893
sg594
(lp1894
sS'GrandRapids'
p1895
(lp1896
S'grmi'
p1897
asS'BayCity'
p1898
(lp1899
sg603
(lp1900
S'sami'
p1901
assg606
(dp1902
g608
(lp1903
sS'KansasCity'
p1904
(lp1905
S'kcks'
p1906
asg614
(lp1907
ssg617
(dp1908
g619
(lp1909
ssg622
(dp1910
g624
(lp1911
S'chsc'
p1912
assg627
(dp1913
g629
(lp1914
S'coky'
p1915
asg632
(lp1916
sg635
(lp1917
S'luky'
p1918
assg638
(dp1919
g640
(lp1920
S'poor'
p1921
asssI1910
(dp1922
g2
(dp1923
g4
(lp1924
S'riva'
p1925
asg7
(lp1926
S'nova'
p1927
assg10
(dp1928
g12
(lp1929
sg15
(lp1930
S'deco'
p1931
assg18
(dp1932
S'LosAngeles'
p1933
(lp1934
S'laca'
p1935
asS'SanFrancisco'
p1936
(lp1937
S'sfca'
p1938
asS'SanDiego'
p1939
(lp1940
S'sdca'
p1941
asg29
(lp1942
sS'SanJose'
p1943
(lp1944
sg35
(lp1945
S'paca'
p1946
asg38
(lp1947
sg41
(lp1948
S'glca'
p1949
asg44
(lp1950
sS'LongBeach'
p1951
(lp1952
S'lbca'
p1953
assg50
(dp1954
g52
(lp1955
sg55
(lp1956
S'bial'
p1957
asg58
(lp1958
ssg61
(dp1959
S'LittleRock'
p1960
(lp1961
ssg66
(dp1962
g68
(lp1963
sg71
(lp1964
sg74
(lp1965
S'chil'
p1966
asg77
(lp1967
sg80
(lp1968
sS'EastSt.Louis'
p1969
(lp1970
sg85
(lp1971
sg88
(lp1972
sS'OakPark'
p1973
(lp1974
sg94
(lp1975
S'peil'
p1976
asg97
(lp1977
ssg100
(dp1978
g102
(lp1979
S'saga'
p1980
asg105
(lp1981
S'a1ga'
p1982
asg109
(lp1983
ssg112
(dp1984
g114
(lp1985
S'inin'
p1986
asS'FortWayne'
p1987
(lp1988
S'fwin'
p1989
asg120
(lp1990
sS'SouthBend'
p1991
(lp1992
S'sbin'
p1993
asg126
(lp1994
S'gain'
p1995
asg129
(lp1996
S'evin'
p1997
asS'TerreHaute'
p1998
(lp1999
S'thin'
p2000
assg135
(dp2001
S'DesMoines'
p2002
(lp2003
S'dmia'
p2004
asS'SiouxCity'
p2005
(lp2006
sg143
(lp2007
sg146
(lp2008
ssg149
(dp2009
g151
(lp2010
S'phaz'
p2011
assg154
(dp2012
g156
(lp2013
S'brct'
p2014
asg159
(lp2015
S'wact'
p2016
asg162
(lp2017
S'hact'
p2018
asg166
(lp2019
sS'NewBritain'
p2020
(lp2021
sS'NewHaven'
p2022
(lp2023
S'nhct'
p2024
assg175
(dp2025
g177
(lp2026
S'manh'
p2027
assg180
(dp2028
g182
(lp2029
S'trnj'
p2030
asS'AtlanticCity'
p2031
(lp2032
sS'JerseyCity'
p2033
(lp2034
S'jcnj'
p2035
asg191
(lp2036
S'banj'
p2037
asg194
(lp2038
S'psnj'
p2039
asg197
(lp2040
S'nenj'
p2041
asg200
(lp2042
S'canj'
p2043
asg203
(lp2044
S'panj'
p2045
asg206
(lp2046
S'honj'
p2047
asS'EastOrange'
p2048
(lp2049
sg212
(lp2050
S'elnj'
p2051
assg215
(dp2052
g217
(lp2053
sg220
(lp2054
S'hotx'
p2055
asg223
(lp2056
S'datx'
p2057
asS'SanAntonio'
p2058
(lp2059
S'satx'
p2060
asS'ElPaso'
p2061
(lp2062
sS'FortWorth'
p2063
(lp2064
S'fwtx'
p2065
asg235
(lp2066
ssg238
(dp2067
g240
(lp2068
sS'NewOrleans'
p2069
(lp2070
S'nola'
p2071
assg246
(dp2072
g248
(lp2073
sg250
(lp2074
S'chnc'
p2075
assg253
(dp2076
g255
(lp2077
sg258
(lp2078
S'omne'
p2079
assg261
(dp2080
g263
(lp2081
sg266
(lp2082
sg269
(lp2083
S'metn'
p2084
asg272
(lp2085
S'natn'
p2086
assg275
(dp2087
g277
(lp2088
S'alny'
p2089
asg280
(lp2090
S'rony'
p2091
asS'NewYork'
p2092
(lp2093
sg285
(lp2094
S'pony'
p2095
asS'MountVernon'
p2096
(lp2097
sg290
(lp2098
sg293
(lp2099
sg296
(lp2100
S'yony'
p2101
asg299
(lp2102
S'trny'
p2103
asS'NiagaraFalls'
p2104
(lp2105
sg305
(lp2106
sg308
(lp2107
S'utny'
p2108
asg311
(lp2109
S'buny'
p2110
asg314
(lp2111
S'scny'
p2112
asg317
(lp2113
S'syny'
p2114
assg320
(dp2115
g322
(lp2116
sg325
(lp2117
S'repa'
p2118
asg328
(lp2119
S'pipa'
p2120
asg331
(lp2121
sg334
(lp2122
S'phpa'
p2123
asg337
(lp2124
sg340
(lp2125
S'hapa'
p2126
asg343
(lp2127
sg346
(lp2128
sg349
(lp2129
sS'NewCastle'
p2130
(lp2131
sg355
(lp2132
S'scpa'
p2133
asg358
(lp2134
S'erpa'
p2135
asg361
(lp2136
sg364
(lp2137
sg367
(lp2138
S'jopa'
p2139
assg370
(dp2140
g372
(lp2141
sg375
(lp2142
S'prri'
p2143
asg379
(lp2144
ssg382
(dp2145
g384
(lp2146
S'sewa'
p2147
asg387
(lp2148
S'spwa'
p2149
asg390
(lp2150
S'tawa'
p2151
assg393
(dp2152
g395
(lp2153
S'wide'
p2154
assg398
(dp2155
g400
(lp2156
S'wadc'
p2157
assg403
(dp2158
g405
(lp2159
sg407
(lp2160
sg410
(lp2161
sg413
(lp2162
sg416
(lp2163
S'miwi'
p2164
asg419
(lp2165
ssg422
(dp2166
g424
(lp2167
sg427
(lp2168
ssg430
(dp2169
g432
(lp2170
S'tuok'
p2171
asS'OklahomaCity'
p2172
(lp2173
S'ocok'
p2174
assg438
(dp2175
g440
(lp2176
sg443
(lp2177
S'afl'
p2178
asg446
(lp2179
S'afl'
p2180
aS'tfl'
p2181
assg449
(dp2182
g451
(lp2183
S'pome'
p2184
assg454
(dp2185
g456
(lp2186
S'bamd'
p2187
assg459
(dp2188
g461
(lp2189
S'loma'
p2190
asg464
(lp2191
S'lyma'
p2192
asg467
(lp2193
S'cama'
p2194
asg470
(lp2195
sg473
(lp2196
S'spma'
p2197
asg476
(lp2198
S'lama'
p2199
asg479
(lp2200
sg482
(lp2201
S'boma'
p2202
asg485
(lp2203
sg488
(lp2204
sg491
(lp2205
S'woma'
p2206
asg494
(lp2207
S'homa'
p2208
asg497
(lp2209
sg500
(lp2210
sS'FallRiver'
p2211
(lp2212
S'frma'
p2213
asg506
(lp2214
S'bcma'
p2215
asg509
(lp2216
S'soma'
p2217
asg512
(lp2218
sg515
(lp2219
sS'NewBedford'
p2220
(lp2221
S'nbma'
p2222
assg521
(dp2223
g523
(lp2224
S'cooh'
p2225
asg526
(lp2226
S'cioh'
p2227
asg529
(lp2228
sg532
(lp2229
S'daoh'
p2230
asg535
(lp2231
S'tooh'
p2232
asg538
(lp2233
S'caoh'
p2234
asg541
(lp2235
S'yooh'
p2236
asg544
(lp2237
S'cloh'
p2238
asg549
(lp2239
S'akoh'
p2240
asg552
(lp2241
ssg555
(dp2242
S'SaltLakeCity'
p2243
(lp2244
S'slut'
p2245
assg560
(dp2246
S'StLouis'
p2247
(lp2248
S'slmo'
p2249
asg565
(lp2250
sS'StJoseph'
p2251
(lp2252
S'sjmo'
p2253
asS'KansasCity'
p2254
(lp2255
S'kcmo'
p2256
assg575
(dp2257
S'StPaul'
p2258
(lp2259
S'spmn'
p2260
asg580
(lp2261
S'dumn'
p2262
assg583
(dp2263
g585
(lp2264
sg588
(lp2265
S'demi'
p2266
asg591
(lp2267
sg594
(lp2268
sS'GrandRapids'
p2269
(lp2270
S'grmi'
p2271
asS'BayCity'
p2272
(lp2273
sg603
(lp2274
ssg606
(dp2275
g608
(lp2276
S'wiks'
p2277
asS'KansasCity'
p2278
(lp2279
S'kcks'
p2280
asg614
(lp2281
ssg617
(dp2282
g619
(lp2283
ssg622
(dp2284
g624
(lp2285
S'chsc'
p2286
assg627
(dp2287
g629
(lp2288
sg632
(lp2289
sg635
(lp2290
S'luky'
p2291
assg638
(dp2292
g640
(lp2293
S'poor'
p2294
asss.