(dp0
I1920
(dp1
S'va'
p2
(dp3
S'Richmond'
p4
(lp5
S'riva'
p6
asS'Norfolk'
p7
(lp8
S'nova'
p9
assS'co'
p10
(dp11
S'Pueblo'
p12
(lp13
S'puco'
p14
asS'Denver'
p15
(lp16
S'deco'
p17
assS'ca'
p18
(dp19
S'LosAngeles'
p20
(lp21
S'laca'
p22
asS'SanFrancisco'
p23
(lp24
S'sfca'
p25
asS'SanDiego'
p26
(lp27
S'sdca'
p28
asS'Sacramento'
p29
(lp30
S'scca'
p31
asS'SanJose'
p32
(lp33
S'sjca'
p34
asS'Pasadena'
p35
(lp36
S'paca'
p37
asS'Berkeley'
p38
(lp39
S'beca'
p40
asS'Glendale'
p41
(lp42
S'glca'
p43
asS'Oakland'
p44
(lp45
S'oaca'
p46
asS'LongBeach'
p47
(lp48
S'lbca'
p49
assS'al'
p50
(dp51
S'Mobile'
p52
(lp53
S'moal'
p54
asS'Birmingham'
p55
(lp56
S'bial'
p57
asS'Montgomery'
p58
(lp59
S'mnal'
p60
assS'ar'
p61
(dp62
S'LittleRock'
p63
(lp64
S'lrar'
p65
assS'il'
p66
(dp67
S'Rockford'
p68
(lp69
S'roil'
p70
asS'EastStLouis'
p71
(lp72
S'esil'
p73
asS'Chicago'
p74
(lp75
S'chil'
p76
asS'Aurora'
p77
(lp78
S'auil'
p79
asS'Cicero'
p80
(lp81
S'ciil'
p82
asS'Evanston'
p83
(lp84
S'evil'
p85
asS'Joliet'
p86
(lp87
S'joil'
p88
asS'OakPark'
p89
(lp90
S'opil'
p91
asS'Peoria'
p92
(lp93
S'peil'
p94
asS'Springfield'
p95
(lp96
S'spil'
p97
asS'Quincy'
p98
(lp99
S'quil'
p100
assS'ga'
p101
(dp102
S'Savannah'
p103
(lp104
S'saga'
p105
asS'Atlanta'
p106
(lp107
S'a1ga'
p108
aS'a2ga'
p109
asS'Augusta'
p110
(lp111
S'auga'
p112
assS'in'
p113
(dp114
S'Indianapolis'
p115
(lp116
S'inin'
p117
asS'FortWayne'
p118
(lp119
S'fwin'
p120
asS'Hammond'
p121
(lp122
S'hain'
p123
asS'SouthBend'
p124
(lp125
S'sbin'
p126
asS'Gary'
p127
(lp128
S'gain'
p129
asS'Evansville'
p130
(lp131
S'evin'
p132
asS'TerreHaute'
p133
(lp134
S'thin'
p135
assS'ia'
p136
(dp137
S'DesMoines'
p138
(lp139
S'dmia'
p140
asS'SiouxCity'
p141
(lp142
S'siia'
p143
asS'Davenport'
p144
(lp145
S'daia'
p146
asS'Dubuque'
p147
(lp148
S'duia'
p149
assS'az'
p150
(dp151
S'Phoenix'
p152
(lp153
S'phaz'
p154
assS'ct'
p155
(dp156
S'Bridgeport'
p157
(lp158
S'brct'
p159
asS'Waterbury'
p160
(lp161
S'wact'
p162
asS'Hartford'
p163
(lp164
S'hact'
p165
aS'wrct'
p166
asS'Meriden'
p167
(lp168
S'mect'
p169
asS'NewBritain'
p170
(lp171
S'nbct'
p172
asS'NewHaven'
p173
(lp174
S'nhct'
p175
assS'nh'
p176
(dp177
S'Manchester'
p178
(lp179
S'manh'
p180
assS'nj'
p181
(dp182
S'Trenton'
p183
(lp184
S'trnj'
p185
asS'AtlanticCity'
p186
(lp187
S'acnj'
p188
asS'JerseyCity'
p189
(lp190
S'jcnj'
p191
asS'Bayonne'
p192
(lp193
S'banj'
p194
asS'Passaic'
p195
(lp196
S'psnj'
p197
asS'Newark'
p198
(lp199
S'nenj'
p200
asS'Camden'
p201
(lp202
S'canj'
p203
asS'Paterson'
p204
(lp205
S'panj'
p206
asS'Hoboken'
p207
(lp208
S'honj'
p209
asS'EastOrange'
p210
(lp211
S'eonj'
p212
asS'Elizabeth'
p213
(lp214
S'elnj'
p215
assS'tx'
p216
(dp217
S'Galveston'
p218
(lp219
S'gatx'
p220
asS'Houston'
p221
(lp222
S'hotx'
p223
asS'Dallas'
p224
(lp225
S'datx'
p226
asS'SanAntonio'
p227
(lp228
S'satx'
p229
asS'ElPaso'
p230
(lp231
S'eptx'
p232
asS'FortWorth'
p233
(lp234
S'fwtx'
p235
asS'Austin'
p236
(lp237
S'autx'
p238
assS'la'
p239
(dp240
S'Shreveport'
p241
(lp242
S'shla'
p243
asS'NewOrleans'
p244
(lp245
S'nola'
p246
assS'nc'
p247
(dp248
S'Winston-Salem'
p249
(lp250
sS'Charlotte'
p251
(lp252
S'chnc'
p253
assS'ne'
p254
(dp255
S'Lincoln'
p256
(lp257
S'line'
p258
asS'Omaha'
p259
(lp260
S'omne'
p261
assS'tn'
p262
(dp263
S'Chattanooga'
p264
(lp265
S'chtn'
p266
asS'Knoxville'
p267
(lp268
S'kntn'
p269
asS'Memphis'
p270
(lp271
S'metn'
p272
asS'Nashville'
p273
(lp274
S'natn'
p275
assS'ny'
p276
(dp277
S'Albany'
p278
(lp279
S'alny'
p280
asS'Rochester'
p281
(lp282
S'rony'
p283
asS'Manhattan'
p284
(lp285
S'many'
p286
asS'NewYork'
p287
(lp288
sS'Poughkeepsie'
p289
(lp290
S'pony'
p291
asS'MountVernon'
p292
(lp293
sS'Brooklyn'
p294
(lp295
S'bkny'
p296
asS'Richmond'
p297
(lp298
sS'Auburn'
p299
(lp300
S'auny'
p301
asS'Elmira'
p302
(lp303
S'elny'
p304
asS'Yonkers'
p305
(lp306
S'yony'
p307
asS'Troy'
p308
(lp309
S'trny'
p310
asS'NiagaraFalls'
p311
(lp312
S'nfny'
p313
asS'Binghamton'
p314
(lp315
S'biny'
p316
asS'Utica'
p317
(lp318
S'utny'
p319
asS'Bronx'
p320
(lp321
S'bxny'
p322
asS'Queens'
p323
(lp324
S'quny'
p325
asS'Buffalo'
p326
(lp327
S'buny'
p328
asS'Schenectady'
p329
(lp330
S'scny'
p331
asS'Syracuse'
p332
(lp333
S'syny'
p334
assS'pa'
p335
(dp336
S'Lancaster'
p337
(lp338
S'lapa'
p339
asS'Reading'
p340
(lp341
S'repa'
p342
asS'Pittsburgh'
p343
(lp344
S'pipa'
p345
asS'Allentown'
p346
(lp347
S'alpa'
p348
asS'Philadelphia'
p349
(lp350
S'phpa'
p351
asS'McKeesport'
p352
(lp353
S'mcpa'
p354
asS'Harrisburg'
p355
(lp356
S'hapa'
p357
asS'Altoona'
p358
(lp359
S'atpa'
p360
asS'Wilkes-Barre'
p361
(lp362
S'wipa'
p363
asS'Chester'
p364
(lp365
S'chpa'
p366
asS'NewCastle'
p367
(lp368
S'ncpa'
p369
asS'Scranton'
p370
(lp371
S'scpa'
p372
asS'Erie'
p373
(lp374
S'erpa'
p375
asS'Williamsport'
p376
(lp377
S'wlpa'
p378
asS'York'
p379
(lp380
S'yopa'
p381
asS'Johnstown'
p382
(lp383
S'jopa'
p384
assS'ri'
p385
(dp386
S'Woonsocket'
p387
(lp388
S'wori'
p389
asS'Providence'
p390
(lp391
S'epri'
p392
aS'prri'
p393
asS'Pawtucket'
p394
(lp395
S'pari'
p396
assS'wa'
p397
(dp398
S'Seattle'
p399
(lp400
S'sewa'
p401
asS'Spokane'
p402
(lp403
S'spwa'
p404
asS'Tacoma'
p405
(lp406
S'tawa'
p407
assS'de'
p408
(dp409
S'Wilmington'
p410
(lp411
S'wide'
p412
assS'dc'
p413
(dp414
S'Washington'
p415
(lp416
S'wadc'
p417
assS'wi'
p418
(dp419
S'LaCrosse'
p420
(lp421
sS'Superior'
p422
(lp423
S'suwi'
p424
asS'Madison'
p425
(lp426
S'mawi'
p427
asS'Oshkosh'
p428
(lp429
S'oswi'
p430
asS'Milwaukee'
p431
(lp432
S'miwi'
p433
asS'Racine'
p434
(lp435
S'rawi'
p436
assS'wv'
p437
(dp438
S'Charleston'
p439
(lp440
S'chwv'
p441
asS'Huntington'
p442
(lp443
S'huwv'
p444
assS'ok'
p445
(dp446
S'Tulsa'
p447
(lp448
S'tuok'
p449
asS'OklahomaCity'
p450
(lp451
S'ocok'
p452
assS'fl'
p453
(dp454
S'Miami'
p455
(lp456
S'mifl'
p457
asS'Jacksonville'
p458
(lp459
S'jafl'
p460
asS'Tampa'
p461
(lp462
S'tafl'
p463
assS'me'
p464
(dp465
S'Portland'
p466
(lp467
S'pome'
p468
assS'md'
p469
(dp470
S'Baltimore'
p471
(lp472
S'bamd'
p473
assS'ma'
p474
(dp475
S'Lowell'
p476
(lp477
S'loma'
p478
asS'Lynn'
p479
(lp480
S'lyma'
p481
asS'Cambridge'
p482
(lp483
S'cama'
p484
asS'Quincy'
p485
(lp486
S'quma'
p487
asS'Springfield'
p488
(lp489
S'spma'
p490
asS'Lawrence'
p491
(lp492
S'lama'
p493
asS'Taunton'
p494
(lp495
S'tama'
p496
asS'Boston'
p497
(lp498
S'boma'
p499
asS'Newton'
p500
(lp501
S'nema'
p502
asS'Haverhill'
p503
(lp504
S'hama'
p505
asS'Worcester'
p506
(lp507
S'woma'
p508
asS'Holyoke'
p509
(lp510
S'homa'
p511
asS'Salem'
p512
(lp513
S'sama'
p514
asS'Malden'
p515
(lp516
S'mama'
p517
asS'FallRiver'
p518
(lp519
S'frma'
p520
asS'Brockton'
p521
(lp522
S'bcma'
p523
asS'Somerville'
p524
(lp525
S'soma'
p526
asS'Fitchburg'
p527
(lp528
S'fima'
p529
asS'Chelsea'
p530
(lp531
S'chma'
p532
asS'NewBedford'
p533
(lp534
S'nbma'
p535
assS'oh'
p536
(dp537
S'Columbus'
p538
(lp539
S'cooh'
p540
asS'Cincinnati'
p541
(lp542
S'cioh'
p543
asS'Lakewood'
p544
(lp545
S'laoh'
p546
asS'Dayton'
p547
(lp548
S'daoh'
p549
asS'Toledo'
p550
(lp551
S'tooh'
p552
asS'Canton'
p553
(lp554
S'caoh'
p555
asS'Youngstown'
p556
(lp557
S'yooh'
p558
asS'Cleveland'
p559
(lp560
S'cloh'
p561
aS'choh'
p562
aS'ecoh'
p563
asS'Akron'
p564
(lp565
S'akoh'
p566
asS'Springfield'
p567
(lp568
S'spoh'
p569
assS'ut'
p570
(dp571
S'SaltLakeCity'
p572
(lp573
S'slut'
p574
assS'mo'
p575
(dp576
S'StLouis'
p577
(lp578
S'slmo'
p579
asS'Joplin'
p580
(lp581
S'j1mo'
p582
aS'j2mo'
p583
asS'StJoseph'
p584
(lp585
S'sjmo'
p586
asS'KansasCity'
p587
(lp588
S'kcmo'
p589
assS'mn'
p590
(dp591
S'StPaul'
p592
(lp593
S'spmn'
p594
asS'Duluth'
p595
(lp596
S'dumn'
p597
asS'Minneapolis'
p598
(lp599
S'mimn'
p600
assS'mi'
p601
(dp602
S'Pontiac'
p603
(lp604
S'pomi'
p605
asS'Detroit'
p606
(lp607
S'demi'
p608
asS'Lansing'
p609
(lp610
S'lami'
p611
asS'Flint'
p612
(lp613
S'flmi'
p614
asS'GrandRapids'
p615
(lp616
S'grmi'
p617
asS'BayCity'
p618
(lp619
S'bcmi'
p620
asS'Saginaw'
p621
(lp622
S'sami'
p623
assS'ks'
p624
(dp625
S'Wichita'
p626
(lp627
S'wiks'
p628
asS'KansasCity'
p629
(lp630
S'kcks'
p631
asS'Topeka'
p632
(lp633
S'toks'
p634
assS'mt'
p635
(dp636
S'Butte'
p637
(lp638
S'bumt'
p639
assS'sc'
p640
(dp641
S'Charleston'
p642
(lp643
S'chsc'
p644
assS'ky'
p645
(dp646
S'Covington'
p647
(lp648
S'coky'
p649
asS'Newport'
p650
(lp651
S'neky'
p652
asS'Louisville'
p653
(lp654
S'luky'
p655
assS'or'
p656
(dp657
S'Portland'
p658
(lp659
S'poor'
p660
asssI1940
(dp661
g2
(dp662
g4
(lp663
S'riva'
p664
asg7
(lp665
S'nova'
p666
assg10
(dp667
g12
(lp668
S'puco'
p669
asg15
(lp670
S'deco'
p671
assg18
(dp672
S'LosAngeles'
p673
(lp674
S'laca'
p675
asS'SanFrancisco'
p676
(lp677
S'sfca'
p678
asS'SanDiego'
p679
(lp680
S'sdca'
p681
asg29
(lp682
S'scca'
p683
asS'SanJose'
p684
(lp685
S'sjca'
p686
asg35
(lp687
S'paca'
p688
aS's5ca'
p689
asg38
(lp690
S'beca'
p691
asg41
(lp692
S'glca'
p693
asg44
(lp694
S'oaca'
p695
asS'LongBeach'
p696
(lp697
S'lbca'
p698
assg50
(dp699
g52
(lp700
S'moal'
p701
asg55
(lp702
S'bial'
p703
asg58
(lp704
S'mnal'
p705
assg61
(dp706
S'LittleRock'
p707
(lp708
S'lrar'
p709
assg66
(dp710
g68
(lp711
S'roil'
p712
asS'EastStLouis'
p713
(lp714
S'esil'
p715
asg74
(lp716
S'chil'
p717
aS'ceil'
p718
aS'ncil'
p719
asg77
(lp720
S'auil'
p721
asg80
(lp722
S'ciil'
p723
asg83
(lp724
S'evil'
p725
asg86
(lp726
S'joil'
p727
asS'OakPark'
p728
(lp729
S'opil'
p730
asg92
(lp731
S'peil'
p732
asg95
(lp733
S'spil'
p734
asg98
(lp735
S'quil'
p736
assg101
(dp737
g103
(lp738
S'saga'
p739
asg106
(lp740
S'atga'
p741
asg110
(lp742
S'auga'
p743
assg113
(dp744
g115
(lp745
S'inin'
p746
asS'FortWayne'
p747
(lp748
S'fwin'
p749
asg121
(lp750
S'hain'
p751
asS'SouthBend'
p752
(lp753
S'sbin'
p754
asg127
(lp755
S'gain'
p756
asg130
(lp757
S'evin'
p758
asS'TerreHaute'
p759
(lp760
S'thin'
p761
assg136
(dp762
S'DesMoines'
p763
(lp764
S'dmia'
p765
asS'SiouxCity'
p766
(lp767
S'scia'
p768
asg144
(lp769
S'daia'
p770
asg147
(lp771
S'duia'
p772
assg150
(dp773
g152
(lp774
S'phaz'
p775
assg155
(dp776
g157
(lp777
S'brct'
p778
asg160
(lp779
S'wact'
p780
asg163
(lp781
S'ehct'
p782
aS'hact'
p783
aS'wrct'
p784
asg167
(lp785
S'mect'
p786
asS'NewBritain'
p787
(lp788
S'nbct'
p789
asS'NewHaven'
p790
(lp791
S'nhct'
p792
assg176
(dp793
g178
(lp794
S'manh'
p795
assg181
(dp796
g183
(lp797
S'trnj'
p798
asS'AtlanticCity'
p799
(lp800
S'acnj'
p801
asS'JerseyCity'
p802
(lp803
S'jcnj'
p804
asg192
(lp805
S'banj'
p806
asg195
(lp807
S'psnj'
p808
asg198
(lp809
S'nenj'
p810
asg201
(lp811
S'canj'
p812
asg204
(lp813
S'panj'
p814
asg207
(lp815
S'honj'
p816
asS'EastOrange'
p817
(lp818
S'eonj'
p819
asg213
(lp820
S'elnj'
p821
assg216
(dp822
g218
(lp823
S'gatx'
p824
asg221
(lp825
S'hotx'
p826
asg224
(lp827
S'datx'
p828
asS'SanAntonio'
p829
(lp830
S'satx'
p831
asS'ElPaso'
p832
(lp833
S'eptx'
p834
asS'FortWorth'
p835
(lp836
S'fwtx'
p837
asg236
(lp838
S'autx'
p839
assg239
(dp840
g241
(lp841
S'shla'
p842
asS'NewOrleans'
p843
(lp844
S'nola'
p845
assg247
(dp846
g249
(lp847
S'wsnc'
p848
asg251
(lp849
S'chnc'
p850
assg254
(dp851
g256
(lp852
S'line'
p853
asg259
(lp854
S'omne'
p855
assg262
(dp856
g264
(lp857
S'chtn'
p858
asg267
(lp859
S'kntn'
p860
asg270
(lp861
S'metn'
p862
asg273
(lp863
S'natn'
p864
assg276
(dp865
g278
(lp866
S'alny'
p867
asg281
(lp868
S'rony'
p869
asg284
(lp870
S'many'
p871
asS'NewYork'
p872
(lp873
sg289
(lp874
S'pony'
p875
asS'MountVernon'
p876
(lp877
S'mvny'
p878
asg294
(lp879
S'bkny'
p880
asg297
(lp881
sg299
(lp882
S'auny'
p883
asg302
(lp884
S'elny'
p885
asg305
(lp886
S'yony'
p887
asg308
(lp888
S'trny'
p889
asS'NiagaraFalls'
p890
(lp891
S'niny'
p892
asg314
(lp893
S'biny'
p894
asg317
(lp895
S'utny'
p896
asg320
(lp897
S'bxny'
p898
asg323
(lp899
S'quny'
p900
asg326
(lp901
S'buny'
p902
asg329
(lp903
S'scny'
p904
asg332
(lp905
S'syny'
p906
assg335
(dp907
g337
(lp908
S'lapa'
p909
asg340
(lp910
S'repa'
p911
asg343
(lp912
S'pipa'
p913
asg346
(lp914
S'alpa'
p915
asg349
(lp916
S'phpa'
p917
asg352
(lp918
S'mcpa'
p919
asg355
(lp920
S'hapa'
p921
asg358
(lp922
S'atpa'
p923
asg361
(lp924
S'wbpa'
p925
asg364
(lp926
S'chpa'
p927
aS'wcpa'
p928
asS'NewCastle'
p929
(lp930
S'ncpa'
p931
asg370
(lp932
S'scpa'
p933
asg373
(lp934
S'erpa'
p935
asg376
(lp936
S'wlpa'
p937
asg379
(lp938
S'yopa'
p939
asg382
(lp940
S'jopa'
p941
assg385
(dp942
g387
(lp943
S'wori'
p944
asg390
(lp945
S'epri'
p946
aS'prri'
p947
asg394
(lp948
S'pari'
p949
assg397
(dp950
g399
(lp951
S'sewa'
p952
asg402
(lp953
S'spwa'
p954
asg405
(lp955
S'tawa'
p956
assg408
(dp957
g410
(lp958
S'wide'
p959
assg413
(dp960
g415
(lp961
S'wa" selectedc'
p962
assg418
(dp963
g420
(lp964
sg422
(lp965
S'suwi'
p966
asg425
(lp967
S'mawi'
p968
asg428
(lp969
S'oswi'
p970
asg431
(lp971
S'miwi'
p972
aS'smwi'
p973
asg434
(lp974
S'rawi'
p975
assg437
(dp976
g439
(lp977
S'chwv'
p978
asg442
(lp979
S'h1wv'
p980
aS'h2wv'
p981
assg445
(dp982
g447
(lp983
S'tuok'
p984
asS'OklahomaCity'
p985
(lp986
S'ocok'
p987
assg453
(dp988
g455
(lp989
S'mifl'
p990
aS'mbfl'
p991
asg458
(lp992
S'jafl'
p993
asg461
(lp994
S'tafl'
p995
assg464
(dp996
g466
(lp997
S'pome'
p998
aS'spme'
p999
assg469
(dp1000
g471
(lp1001
S'bamd'
p1002
assg474
(dp1003
g476
(lp1004
S'loma'
p1005
asg479
(lp1006
S'lyma'
p1007
asg482
(lp1008
S'cama'
p1009
asg485
(lp1010
S'quma'
p1011
asg488
(lp1012
S'spma'
p1013
aS'wpma'
p1014
asg491
(lp1015
S'lama'
p1016
asg494
(lp1017
S'tama'
p1018
asg497
(lp1019
S'boma'
p1020
asg500
(lp1021
S'nema'
p1022
asg503
(lp1023
S'hama'
p1024
asg506
(lp1025
S'woma'
p1026
asg509
(lp1027
S'homa'
p1028
asg512
(lp1029
S'sama'
p1030
asg515
(lp1031
S'mama'
p1032
asS'FallRiver'
p1033
(lp1034
S'frma'
p1035
asg521
(lp1036
S'bcma'
p1037
asg524
(lp1038
S'soma'
p1039
asg527
(lp1040
S'fima'
p1041
asg530
(lp1042
S'chma'
p1043
asS'NewBedford'
p1044
(lp1045
S'nbma'
p1046
assg536
(dp1047
g538
(lp1048
S'cooh'
p1049
asg541
(lp1050
S'cioh'
p1051
asg544
(lp1052
S'laoh'
p1053
asg547
(lp1054
S'daoh'
p1055
asg550
(lp1056
S'tooh'
p1057
asg553
(lp1058
S'caoh'
p1059
asg556
(lp1060
S'yooh'
p1061
asg559
(lp1062
S'cloh'
p1063
aS'choh'
p1064
aS'ecoh'
p1065
asg564
(lp1066
S'akoh'
p1067
asg567
(lp1068
S'spoh'
p1069
assg570
(dp1070
S'SaltLakeCity'
p1071
(lp1072
S'slut'
p1073
assg575
(dp1074
S'StLouis'
p1075
(lp1076
S'slmo'
p1077
asg580
(lp1078
S'j1mo'
p1079
aS'j2mo'
p1080
asS'StJoseph'
p1081
(lp1082
S'sjmo'
p1083
asS'KansasCity'
p1084
(lp1085
S'kcmo'
p1086
assg590
(dp1087
S'StPaul'
p1088
(lp1089
S'spmn'
p1090
asg595
(lp1091
S'dumn'
p1092
asg598
(lp1093
S'mimn'
p1094
assg601
(dp1095
g603
(lp1096
S'pomi'
p1097
asg606
(lp1098
S'demi'
p1099
aS'edmi'
p1100
asg609
(lp1101
S'lami'
p1102
asg612
(lp1103
S'flmi'
p1104
asS'GrandRapids'
p1105
(lp1106
S'grmi'
p1107
asS'BayCity'
p1108
(lp1109
S'bcmi'
p1110
asg621
(lp1111
S'sami'
p1112
assg624
(dp1113
g626
(lp1114
S'wiks'
p1115
asS'KansasCity'
p1116
(lp1117
S'kcks'
p1118
asg632
(lp1119
S'toks'
p1120
assg635
(dp1121
g637
(lp1122
S'bumt'
p1123
assg640
(dp1124
g642
(lp1125
S'chsc'
p1126
assg645
(dp1127
g647
(lp1128
S'coky'
p1129
asg650
(lp1130
S'neky'
p1131
asg653
(lp1132
S'loky'
p1133
assg656
(dp1134
g658
(lp1135
S'poor'
p1136
asssI1930
(dp1137
g2
(dp1138
g4
(lp1139
S'riva'
p1140
asg7
(lp1141
S'nova'
p1142
assg10
(dp1143
g12
(lp1144
S'puco'
p1145
asg15
(lp1146
S'deco'
p1147
assg18
(dp1148
S'LosAngeles'
p1149
(lp1150
S'laca'
p1151
asS'SanFrancisco'
p1152
(lp1153
S'sfca'
p1154
asS'SanDiego'
p1155
(lp1156
S'sdca'
p1157
asg29
(lp1158
S'scca'
p1159
asS'SanJose'
p1160
(lp1161
S'sjca'
p1162
asg35
(lp1163
S'paca'
p1164
asg38
(lp1165
S'beca'
p1166
asg41
(lp1167
S'glca'
p1168
asg44
(lp1169
S'oaca'
p1170
asS'LongBeach'
p1171
(lp1172
S'lbca'
p1173
assg50
(dp1174
g52
(lp1175
S'moal'
p1176
asg55
(lp1177
S'bial'
p1178
asg58
(lp1179
S'mnal'
p1180
assg61
(dp1181
S'LittleRock'
p1182
(lp1183
S'lrar'
p1184
assg66
(dp1185
g68
(lp1186
S'roil'
p1187
asS'EastStLouis'
p1188
(lp1189
S'esil'
p1190
asg74
(lp1191
S'chil'
p1192
asg77
(lp1193
S'auil'
p1194
asg80
(lp1195
S'ciil'
p1196
asg83
(lp1197
S'evil'
p1198
asg86
(lp1199
S'joil'
p1200
asS'OakPark'
p1201
(lp1202
S'opil'
p1203
asg92
(lp1204
S'peil'
p1205
asg95
(lp1206
S'spil'
p1207
asg98
(lp1208
S'quil'
p1209
assg101
(dp1210
g103
(lp1211
S'saga'
p1212
asg106
(lp1213
S'a1ga'
p1214
aS'a2ga'
p1215
asg110
(lp1216
S'auga'
p1217
assg113
(dp1218
g115
(lp1219
S'inin'
p1220
asS'FortWayne'
p1221
(lp1222
S'fwin'
p1223
asg121
(lp1224
S'hain'
p1225
asS'SouthBend'
p1226
(lp1227
S'sbin'
p1228
asg127
(lp1229
S'gain'
p1230
asg130
(lp1231
S'evin'
p1232
asS'TerreHaute'
p1233
(lp1234
S'thin'
p1235
assg136
(dp1236
S'DesMoines'
p1237
(lp1238
S'dmia'
p1239
asS'SiouxCity'
p1240
(lp1241
S'siia'
p1242
asg144
(lp1243
S'daia'
p1244
asg147
(lp1245
S'duia'
p1246
assg150
(dp1247
g152
(lp1248
S'phaz'
p1249
assg155
(dp1250
g157
(lp1251
S'brct'
p1252
asg160
(lp1253
S'wact'
p1254
asg163
(lp1255
S'hact'
p1256
aS'wrct'
p1257
asg167
(lp1258
S'mect'
p1259
asS'NewBritain'
p1260
(lp1261
S'nbct'
p1262
asS'NewHaven'
p1263
(lp1264
S'nhct'
p1265
assg176
(dp1266
g178
(lp1267
S'manh'
p1268
assg181
(dp1269
g183
(lp1270
S'trnj'
p1271
asS'AtlanticCity'
p1272
(lp1273
S'acnj'
p1274
asS'JerseyCity'
p1275
(lp1276
S'jcnj'
p1277
asg192
(lp1278
S'banj'
p1279
asg195
(lp1280
S'psnj'
p1281
asg198
(lp1282
S'nenj'
p1283
asg201
(lp1284
S'canj'
p1285
asg204
(lp1286
S'panj'
p1287
asg207
(lp1288
S'honj'
p1289
asS'EastOrange'
p1290
(lp1291
S'eonj'
p1292
asg213
(lp1293
S'elnj'
p1294
assg216
(dp1295
g218
(lp1296
S'gatx'
p1297
asg221
(lp1298
S'hotx'
p1299
asg224
(lp1300
S'datx'
p1301
asS'SanAntonio'
p1302
(lp1303
S'satx'
p1304
asS'ElPaso'
p1305
(lp1306
S'eptx'
p1307
asS'FortWorth'
p1308
(lp1309
S'fwtx'
p1310
asg236
(lp1311
S'autx'
p1312
assg239
(dp1313
g241
(lp1314
S'shla'
p1315
asS'NewOrleans'
p1316
(lp1317
S'nola'
p1318
assg247
(dp1319
g249
(lp1320
sg251
(lp1321
S'chnc'
p1322
assg254
(dp1323
g256
(lp1324
S'line'
p1325
asg259
(lp1326
S'omne'
p1327
assg262
(dp1328
g264
(lp1329
S'chtn'
p1330
asg267
(lp1331
S'kntn'
p1332
asg270
(lp1333
S'metn'
p1334
asg273
(lp1335
S'natn'
p1336
assg276
(dp1337
g278
(lp1338
S'alny'
p1339
asg281
(lp1340
S'rony'
p1341
asg284
(lp1342
S'many'
p1343
asS'NewYork'
p1344
(lp1345
sg289
(lp1346
S'pony'
p1347
asS'MountVernon'
p1348
(lp1349
sg294
(lp1350
S'bkny'
p1351
asg297
(lp1352
sg299
(lp1353
S'auny'
p1354
asg302
(lp1355
S'elny'
p1356
asg305
(lp1357
S'yony'
p1358
asg308
(lp1359
S'trny'
p1360
asS'NiagaraFalls'
p1361
(lp1362
S'nfny'
p1363
asg314
(lp1364
S'biny'
p1365
asg317
(lp1366
S'utny'
p1367
asg320
(lp1368
S'bxny'
p1369
asg323
(lp1370
S'quny'
p1371
asg326
(lp1372
S'buny'
p1373
asg329
(lp1374
S'scny'
p1375
asg332
(lp1376
S'syny'
p1377
assg335
(dp1378
g337
(lp1379
S'lapa'
p1380
asg340
(lp1381
S'repa'
p1382
asg343
(lp1383
S'pipa'
p1384
asg346
(lp1385
S'alpa'
p1386
asg349
(lp1387
S'phpa'
p1388
asg352
(lp1389
S'mcpa'
p1390
asg355
(lp1391
S'hapa'
p1392
asg358
(lp1393
S'atpa'
p1394
asg361
(lp1395
S'wipa'
p1396
asg364
(lp1397
S'chpa'
p1398
asS'NewCastle'
p1399
(lp1400
S'ncpa'
p1401
asg370
(lp1402
S'scpa'
p1403
asg373
(lp1404
S'erpa'
p1405
asg376
(lp1406
S'wlpa'
p1407
asg379
(lp1408
S'yopa'
p1409
asg382
(lp1410
S'jopa'
p1411
assg385
(dp1412
g387
(lp1413
S'wori'
p1414
asg390
(lp1415
S'epri'
p1416
aS'prri'
p1417
asg394
(lp1418
S'pari'
p1419
assg397
(dp1420
g399
(lp1421
S'sewa'
p1422
asg402
(lp1423
S'spwa'
p1424
asg405
(lp1425
S'tawa'
p1426
assg408
(dp1427
g410
(lp1428
S'wide'
p1429
assg413
(dp1430
g415
(lp1431
S'wadc'
p1432
assg418
(dp1433
g420
(lp1434
sg422
(lp1435
S'suwi'
p1436
asg425
(lp1437
S'mawi'
p1438
asg428
(lp1439
S'oswi'
p1440
asg431
(lp1441
S'miwi'
p1442
asg434
(lp1443
S'rawi'
p1444
assg437
(dp1445
g439
(lp1446
S'chwv'
p1447
asg442
(lp1448
S'huwv'
p1449
assg445
(dp1450
g447
(lp1451
S'tuok'
p1452
asS'OklahomaCity'
p1453
(lp1454
S'ocok'
p1455
assg453
(dp1456
g455
(lp1457
S'mifl'
p1458
asg458
(lp1459
S'jafl'
p1460
asg461
(lp1461
S'tafl'
p1462
assg464
(dp1463
g466
(lp1464
S'pome'
p1465
assg469
(dp1466
g471
(lp1467
S'bamd'
p1468
assg474
(dp1469
g476
(lp1470
S'loma'
p1471
asg479
(lp1472
S'lyma'
p1473
asg482
(lp1474
S'cama'
p1475
asg485
(lp1476
S'quma'
p1477
asg488
(lp1478
S'spma'
p1479
asg491
(lp1480
S'lama'
p1481
asg494
(lp1482
S'tama'
p1483
asg497
(lp1484
S'boma'
p1485
asg500
(lp1486
S'nema'
p1487
asg503
(lp1488
S'hama'
p1489
asg506
(lp1490
S'woma'
p1491
asg509
(lp1492
S'homa'
p1493
asg512
(lp1494
S'sama'
p1495
asg515
(lp1496
S'mama'
p1497
asS'FallRiver'
p1498
(lp1499
S'frma'
p1500
asg521
(lp1501
S'bcma'
p1502
asg524
(lp1503
S'soma'
p1504
asg527
(lp1505
S'fima'
p1506
asg530
(lp1507
S'chma'
p1508
asS'NewBedford'
p1509
(lp1510
S'nbma'
p1511
assg536
(dp1512
g538
(lp1513
S'cooh'
p1514
asg541
(lp1515
S'cioh'
p1516
asg544
(lp1517
S'laoh'
p1518
asg547
(lp1519
S'daoh'
p1520
asg550
(lp1521
S'tooh'
p1522
asg553
(lp1523
S'caoh'
p1524
asg556
(lp1525
S'yooh'
p1526
asg559
(lp1527
S'cloh'
p1528
aS'choh'
p1529
aS'ecoh'
p1530
asg564
(lp1531
S'akoh'
p1532
asg567
(lp1533
S'spoh'
p1534
assg570
(dp1535
S'SaltLakeCity'
p1536
(lp1537
S'slut'
p1538
assg575
(dp1539
S'StLouis'
p1540
(lp1541
S'slmo'
p1542
asg580
(lp1543
S'j1mo'
p1544
aS'j2mo'
p1545
asS'StJoseph'
p1546
(lp1547
S'sjmo'
p1548
asS'KansasCity'
p1549
(lp1550
S'kcmo'
p1551
assg590
(dp1552
S'StPaul'
p1553
(lp1554
S'spmn'
p1555
asg595
(lp1556
S'dumn'
p1557
asg598
(lp1558
S'mimn'
p1559
assg601
(dp1560
g603
(lp1561
S'pomi'
p1562
asg606
(lp1563
S'demi'
p1564
asg609
(lp1565
S'lami'
p1566
asg612
(lp1567
S'flmi'
p1568
asS'GrandRapids'
p1569
(lp1570
S'grmi'
p1571
asS'BayCity'
p1572
(lp1573
S'bcmi'
p1574
asg621
(lp1575
S'sami'
p1576
assg624
(dp1577
g626
(lp1578
S'wiks'
p1579
asS'KansasCity'
p1580
(lp1581
S'kcks'
p1582
asg632
(lp1583
S'toks'
p1584
assg635
(dp1585
g637
(lp1586
S'bumt'
p1587
assg640
(dp1588
g642
(lp1589
S'chsc'
p1590
assg645
(dp1591
g647
(lp1592
S'coky'
p1593
asg650
(lp1594
S'neky'
p1595
asg653
(lp1596
S'luky'
p1597
assg656
(dp1598
g658
(lp1599
S'poor'
p1600
asssI1900
(dp1601
g2
(dp1602
g4
(lp1603
S'riva'
p1604
asg7
(lp1605
S'nova'
p1606
assg10
(dp1607
g12
(lp1608
sg15
(lp1609
S'deco'
p1610
assg18
(dp1611
S'LosAngeles'
p1612
(lp1613
S'laca'
p1614
asS'SanFrancisco'
p1615
(lp1616
S'sfca'
p1617
asS'SanDiego'
p1618
(lp1619
sg29
(lp1620
sS'SanJose'
p1621
(lp1622
sg35
(lp1623
sg38
(lp1624
sg41
(lp1625
sg44
(lp1626
S'oaca'
p1627
asS'LongBeach'
p1628
(lp1629
ssg50
(dp1630
g52
(lp1631
S'moal'
p1632
asg55
(lp1633
S'bial'
p1634
asg58
(lp1635
ssg61
(dp1636
S'LittleRock'
p1637
(lp1638
S'lrar'
p1639
assg66
(dp1640
g68
(lp1641
sS'EastStLouis'
p1642
(lp1643
sg74
(lp1644
S'chil'
p1645
asg77
(lp1646
sg80
(lp1647
sg83
(lp1648
S'evil'
p1649
asg86
(lp1650
sS'OakPark'
p1651
(lp1652
sg92
(lp1653
S'peil'
p1654
asg95
(lp1655
sg98
(lp1656
ssg101
(dp1657
g103
(lp1658
S'saga'
p1659
asg106
(lp1660
S'a1ga'
p1661
asg110
(lp1662
S'auga'
p1663
assg113
(dp1664
g115
(lp1665
S'inin'
p1666
asS'FortWayne'
p1667
(lp1668
S'fwin'
p1669
asg121
(lp1670
sS'SouthBend'
p1671
(lp1672
sg127
(lp1673
sg130
(lp1674
S'evin'
p1675
asS'TerreHaute'
p1676
(lp1677
ssg136
(dp1678
S'DesMoines'
p1679
(lp1680
S'dmia'
p1681
asS'SiouxCity'
p1682
(lp1683
sg144
(lp1684
sg147
(lp1685
ssg150
(dp1686
g152
(lp1687
ssg155
(dp1688
g157
(lp1689
S'brct'
p1690
asg160
(lp1691
S'wact'
p1692
asg163
(lp1693
S'hact'
p1694
asg167
(lp1695
sS'NewBritain'
p1696
(lp1697
sS'NewHaven'
p1698
(lp1699
S'nhct'
p1700
assg176
(dp1701
g178
(lp1702
S'manh'
p1703
assg181
(dp1704
g183
(lp1705
S'trnj'
p1706
asS'AtlanticCity'
p1707
(lp1708
sS'JerseyCity'
p1709
(lp1710
S'jcnj'
p1711
asg192
(lp1712
sg195
(lp1713
sg198
(lp1714
S'nenj'
p1715
asg201
(lp1716
S'canj'
p1717
asg204
(lp1718
S'panj'
p1719
asg207
(lp1720
S'honj'
p1721
asS'EastOrange'
p1722
(lp1723
sg213
(lp1724
S'elnj'
p1725
assg216
(dp1726
g218
(lp1727
sg221
(lp1728
S'hotx'
p1729
asg224
(lp1730
S'datx'
p1731
asS'SanAntonio'
p1732
(lp1733
S'satx'
p1734
asS'ElPaso'
p1735
(lp1736
sS'FortWorth'
p1737
(lp1738
sg236
(lp1739
ssg239
(dp1740
g241
(lp1741
sS'NewOrleans'
p1742
(lp1743
S'nola'
p1744
assg247
(dp1745
g249
(lp1746
sg251
(lp1747
ssg254
(dp1748
g256
(lp1749
S'line'
p1750
asg259
(lp1751
S'omne'
p1752
assg262
(dp1753
g264
(lp1754
sg267
(lp1755
sg270
(lp1756
S'metn'
p1757
asg273
(lp1758
S'natn'
p1759
assg276
(dp1760
g278
(lp1761
S'alny'
p1762
asg281
(lp1763
S'rony'
p1764
asg284
(lp1765
S'many'
p1766
asS'NewYork'
p1767
(lp1768
sg289
(lp1769
sS'MountVernon'
p1770
(lp1771
sg294
(lp1772
S'bkny'
p1773
asg297
(lp1774
sg299
(lp1775
sg302
(lp1776
sg305
(lp1777
S'yony'
p1778
asg308
(lp1779
S'trny'
p1780
asS'NiagaraFalls'
p1781
(lp1782
sg314
(lp1783
S'biny'
p1784
asg317
(lp1785
S'utny'
p1786
asg320
(lp1787
S'bxny'
p1788
asg323
(lp1789
S'quny'
p1790
asg326
(lp1791
S'buny'
p1792
asg329
(lp1793
sg332
(lp1794
S'syny'
p1795
assg335
(dp1796
g337
(lp1797
S'lapa'
p1798
asg340
(lp1799
S'repa'
p1800
asg343
(lp1801
S'pipa'
p1802
asg346
(lp1803
sg349
(lp1804
S'phpa'
p1805
asg352
(lp1806
S'mcpa'
p1807
asg355
(lp1808
S'hapa'
p1809
asg358
(lp1810
S'atpa'
p1811
asg361
(lp1812
S'wipa'
p1813
asg364
(lp1814
sS'NewCastle'
p1815
(lp1816
sg370
(lp1817
S'scpa'
p1818
asg373
(lp1819
S'erpa'
p1820
asg376
(lp1821
sg379
(lp1822
sg382
(lp1823
ssg385
(dp1824
g387
(lp1825
sg390
(lp1826
S'prri'
p1827
asg394
(lp1828
S'pari'
p1829
assg397
(dp1830
g399
(lp1831
S'sewa'
p1832
asg402
(lp1833
sg405
(lp1834
ssg408
(dp1835
g410
(lp1836
S'wide'
p1837
assg413
(dp1838
g415
(lp1839
S'wadc'
p1840
assg418
(dp1841
g420
(lp1842
sg422
(lp1843
sg425
(lp1844
sg428
(lp1845
sg431
(lp1846
S'miwi'
p1847
asg434
(lp1848
ssg437
(dp1849
g439
(lp1850
sg442
(lp1851
ssg445
(dp1852
g447
(lp1853
sS'OklahomaCity'
p1854
(lp1855
ssg453
(dp1856
g455
(lp1857
sg458
(lp1858
sg461
(lp1859
ssg464
(dp1860
g466
(lp1861
S'pome'
p1862
assg469
(dp1863
g471
(lp1864
S'bamd'
p1865
assg474
(dp1866
g476
(lp1867
S'loma'
p1868
asg479
(lp1869
S'lyma'
p1870
asg482
(lp1871
S'cama'
p1872
asg485
(lp1873
sg488
(lp1874
S'spma'
p1875
asg491
(lp1876
S'lama'
p1877
asg494
(lp1878
sg497
(lp1879
S'boma'
p1880
asg500
(lp1881
sg503
(lp1882
sg506
(lp1883
S'woma'
p1884
asg509
(lp1885
S'homa'
p1886
asg512
(lp1887
sg515
(lp1888
sS'FallRiver'
p1889
(lp1890
S'frma'
p1891
asg521
(lp1892
sg524
(lp1893
S'soma'
p1894
asg527
(lp1895
sg530
(lp1896
sS'NewBedford'
p1897
(lp1898
S'nbma'
p1899
assg536
(dp1900
g538
(lp1901
S'cooh'
p1902
asg541
(lp1903
S'cioh'
p1904
asg544
(lp1905
sg547
(lp1906
S'daoh'
p1907
asg550
(lp1908
S'tooh'
p1909
asg553
(lp1910
S'caoh'
p1911
asg556
(lp1912
S'yooh'
p1913
asg559
(lp1914
S'cloh'
p1915
asg564
(lp1916
S'akoh'
p1917
asg567
(lp1918
ssg570
(dp1919
S'SaltLakeCity'
p1920
(lp1921
S'slut'
p1922
assg575
(dp1923
S'StLouis'
p1924
(lp1925
S'slmo'
p1926
asg580
(lp1927
sS'StJoseph'
p1928
(lp1929
S'sjmo'
p1930
asS'KansasCity'
p1931
(lp1932
S'kcmo'
p1933
assg590
(dp1934
S'StPaul'
p1935
(lp1936
S'spmn'
p1937
asg595
(lp1938
S'dumn'
p1939
asg598
(lp1940
S'mimn'
p1941
assg601
(dp1942
g603
(lp1943
sg606
(lp1944
S'demi'
p1945
asg609
(lp1946
sg612
(lp1947
sS'GrandRapids'
p1948
(lp1949
S'grmi'
p1950
asS'BayCity'
p1951
(lp1952
sg621
(lp1953
S'sami'
p1954
assg624
(dp1955
g626
(lp1956
sS'KansasCity'
p1957
(lp1958
S'kcks'
p1959
asg632
(lp1960
ssg635
(dp1961
g637
(lp1962
ssg640
(dp1963
g642
(lp1964
S'chsc'
p1965
assg645
(dp1966
g647
(lp1967
S'coky'
p1968
asg650
(lp1969
sg653
(lp1970
S'luky'
p1971
assg656
(dp1972
g658
(lp1973
S'poor'
p1974
asssI1910
(dp1975
g2
(dp1976
g4
(lp1977
S'riva'
p1978
asg7
(lp1979
S'nova'
p1980
assg10
(dp1981
g12
(lp1982
sg15
(lp1983
S'deco'
p1984
assg18
(dp1985
S'LosAngeles'
p1986
(lp1987
S'laca'
p1988
asS'SanFrancisco'
p1989
(lp1990
S'sfca'
p1991
asS'SanDiego'
p1992
(lp1993
S'sdca'
p1994
asg29
(lp1995
sS'SanJose'
p1996
(lp1997
sg35
(lp1998
S'paca'
p1999
asg38
(lp2000
sg41
(lp2001
S'glca'
p2002
asg44
(lp2003
sS'LongBeach'
p2004
(lp2005
S'lbca'
p2006
assg50
(dp2007
g52
(lp2008
sg55
(lp2009
S'bial'
p2010
asg58
(lp2011
ssg61
(dp2012
S'LittleRock'
p2013
(lp2014
ssg66
(dp2015
g68
(lp2016
sS'EastStLouis'
p2017
(lp2018
S'esil'
p2019
asg74
(lp2020
S'chil'
p2021
asg77
(lp2022
sg80
(lp2023
sg83
(lp2024
sg86
(lp2025
sS'OakPark'
p2026
(lp2027
sg92
(lp2028
S'peil'
p2029
asg95
(lp2030
sg98
(lp2031
ssg101
(dp2032
g103
(lp2033
S'saga'
p2034
asg106
(lp2035
S'a1ga'
p2036
asg110
(lp2037
ssg113
(dp2038
g115
(lp2039
S'inin'
p2040
asS'FortWayne'
p2041
(lp2042
S'fwin'
p2043
asg121
(lp2044
sS'SouthBend'
p2045
(lp2046
S'sbin'
p2047
asg127
(lp2048
S'gain'
p2049
asg130
(lp2050
S'evin'
p2051
asS'TerreHaute'
p2052
(lp2053
S'thin'
p2054
assg136
(dp2055
S'DesMoines'
p2056
(lp2057
S'dmia'
p2058
asS'SiouxCity'
p2059
(lp2060
sg144
(lp2061
sg147
(lp2062
ssg150
(dp2063
g152
(lp2064
S'phaz'
p2065
assg155
(dp2066
g157
(lp2067
S'brct'
p2068
asg160
(lp2069
S'wact'
p2070
asg163
(lp2071
S'hact'
p2072
asg167
(lp2073
sS'NewBritain'
p2074
(lp2075
sS'NewHaven'
p2076
(lp2077
S'nhct'
p2078
assg176
(dp2079
g178
(lp2080
S'manh'
p2081
assg181
(dp2082
g183
(lp2083
S'trnj'
p2084
asS'AtlanticCity'
p2085
(lp2086
sS'JerseyCity'
p2087
(lp2088
S'jcnj'
p2089
asg192
(lp2090
S'banj'
p2091
asg195
(lp2092
S'psnj'
p2093
asg198
(lp2094
S'nenj'
p2095
asg201
(lp2096
S'canj'
p2097
asg204
(lp2098
S'panj'
p2099
asg207
(lp2100
S'honj'
p2101
asS'EastOrange'
p2102
(lp2103
sg213
(lp2104
S'elnj'
p2105
assg216
(dp2106
g218
(lp2107
sg221
(lp2108
S'hotx'
p2109
asg224
(lp2110
S'datx'
p2111
asS'SanAntonio'
p2112
(lp2113
S'satx'
p2114
asS'ElPaso'
p2115
(lp2116
sS'FortWorth'
p2117
(lp2118
S'fwtx'
p2119
asg236
(lp2120
ssg239
(dp2121
g241
(lp2122
sS'NewOrleans'
p2123
(lp2124
S'nola'
p2125
assg247
(dp2126
g249
(lp2127
sg251
(lp2128
S'chnc'
p2129
assg254
(dp2130
g256
(lp2131
sg259
(lp2132
S'omne'
p2133
assg262
(dp2134
g264
(lp2135
sg267
(lp2136
sg270
(lp2137
S'metn'
p2138
asg273
(lp2139
S'natn'
p2140
assg276
(dp2141
g278
(lp2142
S'alny'
p2143
asg281
(lp2144
S'rony'
p2145
asg284
(lp2146
S'many'
p2147
asS'NewYork'
p2148
(lp2149
sg289
(lp2150
S'pony'
p2151
asS'MountVernon'
p2152
(lp2153
sg294
(lp2154
S'bkny'
p2155
asg297
(lp2156
sg299
(lp2157
sg302
(lp2158
sg305
(lp2159
S'yony'
p2160
asg308
(lp2161
S'trny'
p2162
asS'NiagaraFalls'
p2163
(lp2164
sg314
(lp2165
sg317
(lp2166
S'utny'
p2167
asg320
(lp2168
S'bxny'
p2169
asg323
(lp2170
S'quny'
p2171
asg326
(lp2172
S'buny'
p2173
asg329
(lp2174
S'scny'
p2175
asg332
(lp2176
S'syny'
p2177
assg335
(dp2178
g337
(lp2179
sg340
(lp2180
S'repa'
p2181
asg343
(lp2182
S'pipa'
p2183
asg346
(lp2184
sg349
(lp2185
S'phpa'
p2186
asg352
(lp2187
sg355
(lp2188
S'hapa'
p2189
asg358
(lp2190
sg361
(lp2191
sg364
(lp2192
sS'NewCastle'
p2193
(lp2194
sg370
(lp2195
S'scpa'
p2196
asg373
(lp2197
S'erpa'
p2198
asg376
(lp2199
sg379
(lp2200
sg382
(lp2201
S'jopa'
p2202
assg385
(dp2203
g387
(lp2204
sg390
(lp2205
S'prri'
p2206
asg394
(lp2207
ssg397
(dp2208
g399
(lp2209
S'sewa'
p2210
asg402
(lp2211
S'spwa'
p2212
asg405
(lp2213
S'tawa'
p2214
assg408
(dp2215
g410
(lp2216
S'wide'
p2217
assg413
(dp2218
g415
(lp2219
S'wadc'
p2220
assg418
(dp2221
g420
(lp2222
sg422
(lp2223
sg425
(lp2224
sg428
(lp2225
sg431
(lp2226
S'miwi'
p2227
asg434
(lp2228
ssg437
(dp2229
g439
(lp2230
sg442
(lp2231
ssg445
(dp2232
g447
(lp2233
S'tuok'
p2234
asS'OklahomaCity'
p2235
(lp2236
S'ocok'
p2237
assg453
(dp2238
g455
(lp2239
sg458
(lp2240
S'afl'
p2241
asg461
(lp2242
S'afl'
p2243
aS'tfl'
p2244
assg464
(dp2245
g466
(lp2246
S'pome'
p2247
assg469
(dp2248
g471
(lp2249
S'bamd'
p2250
assg474
(dp2251
g476
(lp2252
S'loma'
p2253
asg479
(lp2254
S'lyma'
p2255
asg482
(lp2256
S'cama'
p2257
asg485
(lp2258
sg488
(lp2259
S'spma'
p2260
asg491
(lp2261
S'lama'
p2262
asg494
(lp2263
sg497
(lp2264
S'boma'
p2265
asg500
(lp2266
sg503
(lp2267
sg506
(lp2268
S'woma'
p2269
asg509
(lp2270
S'homa'
p2271
asg512
(lp2272
sg515
(lp2273
sS'FallRiver'
p2274
(lp2275
S'frma'
p2276
asg521
(lp2277
S'bcma'
p2278
asg524
(lp2279
S'soma'
p2280
asg527
(lp2281
sg530
(lp2282
sS'NewBedford'
p2283
(lp2284
S'nbma'
p2285
assg536
(dp2286
g538
(lp2287
S'cooh'
p2288
asg541
(lp2289
S'cioh'
p2290
asg544
(lp2291
sg547
(lp2292
S'daoh'
p2293
asg550
(lp2294
S'tooh'
p2295
asg553
(lp2296
S'caoh'
p2297
asg556
(lp2298
S'yooh'
p2299
asg559
(lp2300
S'cloh'
p2301
asg564
(lp2302
S'akoh'
p2303
asg567
(lp2304
ssg570
(dp2305
S'SaltLakeCity'
p2306
(lp2307
S'slut'
p2308
assg575
(dp2309
S'StLouis'
p2310
(lp2311
S'slmo'
p2312
asg580
(lp2313
sS'StJoseph'
p2314
(lp2315
S'sjmo'
p2316
asS'KansasCity'
p2317
(lp2318
S'kcmo'
p2319
assg590
(dp2320
S'StPaul'
p2321
(lp2322
S'spmn'
p2323
asg595
(lp2324
S'dumn'
p2325
asg598
(lp2326
S'mimn'
p2327
assg601
(dp2328
g603
(lp2329
sg606
(lp2330
S'demi'
p2331
asg609
(lp2332
sg612
(lp2333
sS'GrandRapids'
p2334
(lp2335
S'grmi'
p2336
asS'BayCity'
p2337
(lp2338
sg621
(lp2339
ssg624
(dp2340
g626
(lp2341
S'wiks'
p2342
asS'KansasCity'
p2343
(lp2344
S'kcks'
p2345
asg632
(lp2346
ssg635
(dp2347
g637
(lp2348
ssg640
(dp2349
g642
(lp2350
S'chsc'
p2351
assg645
(dp2352
g647
(lp2353
sg650
(lp2354
sg653
(lp2355
S'luky'
p2356
assg656
(dp2357
g658
(lp2358
S'poor'
p2359
asss.