(dp0
I1900
(dp1
S'va'
p2
(dp3
S'Richmond'
p4
(lp5
S'riva'
p6
asS'Norfolk'
p7
(lp8
S'nova'
p9
assS'co'
p10
(dp11
S'Denver'
p12
(lp13
S'deco'
p14
assS'ca'
p15
(dp16
S'Long Beach'
p17
(lp18
sS'Oakland'
p19
(lp20
S'oaca'
p21
asS'San Diego'
p22
(lp23
sS'Los Angeles'
p24
(lp25
S'laca'
p26
asS'San Francisco'
p27
(lp28
S'sfca'
p29
assS'al'
p30
(dp31
S'Birmingham'
p32
(lp33
S'bial'
p34
assS'il'
p35
(dp36
S'Chicago'
p37
(lp38
S'chil'
p39
assS'ga'
p40
(dp41
S'Atlanta'
p42
(lp43
S'a1ga'
p44
assS'in'
p45
(dp46
S'Indianapolis'
p47
(lp48
S'inin'
p49
assS'ia'
p50
(dp51
S'Des Moines'
p52
(lp53
S'dmia'
p54
assS'ct'
p55
(dp56
S'Bridgeport'
p57
(lp58
S'brct'
p59
asS'New Haven'
p60
(lp61
S'nhct'
p62
asS'Hartford'
p63
(lp64
S'hact'
p65
assS'nj'
p66
(dp67
S'Newark'
p68
(lp69
S'nenj'
p70
asS'Trenton'
p71
(lp72
S'trnj'
p73
asS'Jersey City'
p74
(lp75
S'jcnj'
p76
asS'Paterson'
p77
(lp78
S'panj'
p79
assS'tx'
p80
(dp81
S'Houston'
p82
(lp83
S'hotx'
p84
asS'Dallas'
p85
(lp86
S'datx'
p87
asS'San Antonio'
p88
(lp89
S'satx'
p90
asS'Fort Worth'
p91
(lp92
ssS'la'
p93
(dp94
S'New Orleans'
p95
(lp96
S'nola'
p97
assS'ne'
p98
(dp99
S'Omaha'
p100
(lp101
S'omne'
p102
assS'tn'
p103
(dp104
S'Chattanooga'
p105
(lp106
sS'Nashville'
p107
(lp108
S'natn'
p109
asS'Memphis'
p110
(lp111
S'metn'
p112
assS'ny'
p113
(dp114
S'Albany'
p115
(lp116
S'alny'
p117
asS'Staten Island'
p118
(lp119
S'riny'
p120
asS'Rochester'
p121
(lp122
S'rony'
p123
asS'Yonkers'
p124
(lp125
S'yony'
p126
asS'Brooklyn'
p127
(lp128
S'bkny'
p129
asS'Bronx'
p130
(lp131
S'bxny'
p132
asS'Syracuse'
p133
(lp134
S'syny'
p135
asS'Buffalo'
p136
(lp137
S'buny'
p138
asS'Manhattan'
p139
(lp140
S'many'
p141
asS'Queens'
p142
(lp143
S'quny'
p144
assS'pa'
p145
(dp146
S'Pittsburgh'
p147
(lp148
S'pipa'
p149
asS'Scranton'
p150
(lp151
S'scpa'
p152
asS'Philadelphia'
p153
(lp154
S'phpa'
p155
assS'ri'
p156
(dp157
S'Providence'
p158
(lp159
S'prri'
p160
assS'wa'
p161
(dp162
S'Seattle'
p163
(lp164
S'sewa'
p165
asS'Spokane'
p166
(lp167
ssS'dc'
p168
(dp169
S'Washington'
p170
(lp171
S'wadc'
p172
assS'wi'
p173
(dp174
S'Milwaukee'
p175
(lp176
S'miwi'
p177
assS'ma'
p178
(dp179
S'Boston'
p180
(lp181
S'boma'
p182
asS'Worcester'
p183
(lp184
S'woma'
p185
asS'Springfield'
p186
(lp187
S'spma'
p188
assS'fl'
p189
(dp190
S'Miami'
p191
(lp192
sS'Jacksonville'
p193
(lp194
ssS'md'
p195
(dp196
S'Baltimore'
p197
(lp198
S'bamd'
p199
assS'ok'
p200
(dp201
S'Oklahoma City'
p202
(lp203
sS'Tulsa'
p204
(lp205
ssS'oh'
p206
(dp207
S'Columbus'
p208
(lp209
S'cooh'
p210
asS'Cincinnati'
p211
(lp212
S'cioh'
p213
asS'Dayton'
p214
(lp215
S'daoh'
p216
asS'Cleveland'
p217
(lp218
S'cloh'
p219
asS'Youngstown'
p220
(lp221
S'yooh'
p222
asS'Toledo'
p223
(lp224
S'tooh'
p225
asS'Akron'
p226
(lp227
S'akoh'
p228
assS'ut'
p229
(dp230
S'Salt Lake City'
p231
(lp232
S'slut'
p233
assS'mo'
p234
(dp235
S'Kansas City'
p236
(lp237
S'kcmo'
p238
asS'St Louis'
p239
(lp240
S'slmo'
p241
assS'mn'
p242
(dp243
S'Minneapolis'
p244
(lp245
S'mimn'
p246
asS'St Paul'
p247
(lp248
S'spmn'
p249
assS'mi'
p250
(dp251
S'Grand Rapids'
p252
(lp253
S'grmi'
p254
asS'Flint'
p255
(lp256
sS'Detroit'
p257
(lp258
S'demi'
p259
assS'ks'
p260
(dp261
g236
(lp262
S'kcks'
p263
assS'ky'
p264
(dp265
S'Louisville'
p266
(lp267
S'luky'
p268
assS'or'
p269
(dp270
S'Portland'
p271
(lp272
S'poor'
p273
asssI1930
(dp274
g2
(dp275
g4
(lp276
S'riva'
p277
asg7
(lp278
S'nova'
p279
assg10
(dp280
g12
(lp281
S'deco'
p282
assg15
(dp283
g17
(lp284
S'lbca'
p285
asg19
(lp286
S'oaca'
p287
asg22
(lp288
S'sdca'
p289
asg24
(lp290
S'laca'
p291
asg27
(lp292
S'sfca'
p293
assg30
(dp294
g32
(lp295
S'bial'
p296
assg35
(dp297
g37
(lp298
S'chil'
p299
assg40
(dp300
g42
(lp301
S'a1ga'
p302
aS'a2ga'
p303
assg45
(dp304
g47
(lp305
S'inin'
p306
assg50
(dp307
g52
(lp308
S'dmia'
p309
assg55
(dp310
g57
(lp311
S'brct'
p312
asg60
(lp313
S'nhct'
p314
asg63
(lp315
S'hact'
p316
aS'wrct'
p317
assg66
(dp318
g68
(lp319
S'nenj'
p320
asg71
(lp321
S'trnj'
p322
asg74
(lp323
S'jcnj'
p324
asg77
(lp325
S'panj'
p326
assg80
(dp327
g82
(lp328
S'hotx'
p329
asg85
(lp330
S'datx'
p331
asg88
(lp332
S'satx'
p333
asg91
(lp334
S'fwtx'
p335
assg93
(dp336
g95
(lp337
S'nola'
p338
assg98
(dp339
g100
(lp340
S'omne'
p341
assg103
(dp342
g105
(lp343
S'chtn'
p344
asg107
(lp345
S'natn'
p346
asg110
(lp347
S'metn'
p348
assg113
(dp349
g115
(lp350
S'alny'
p351
asg118
(lp352
S'riny'
p353
asg121
(lp354
S'rony'
p355
asg124
(lp356
S'yony'
p357
asg127
(lp358
S'bkny'
p359
asg130
(lp360
S'bxny'
p361
asg133
(lp362
S'syny'
p363
asg136
(lp364
S'buny'
p365
asg139
(lp366
S'many'
p367
asg142
(lp368
S'quny'
p369
assg145
(dp370
g147
(lp371
S'pipa'
p372
asg150
(lp373
S'scpa'
p374
asg153
(lp375
S'phpa'
p376
assg156
(dp377
g158
(lp378
S'epri'
p379
aS'prri'
p380
assg161
(dp381
g163
(lp382
S'sewa'
p383
asg166
(lp384
S'spwa'
p385
assg168
(dp386
g170
(lp387
S'wadc'
p388
assg173
(dp389
g175
(lp390
S'miwi'
p391
assg178
(dp392
g180
(lp393
S'boma'
p394
asg183
(lp395
S'woma'
p396
asg186
(lp397
S'spma'
p398
assg189
(dp399
g191
(lp400
S'mifl'
p401
asg193
(lp402
S'jafl'
p403
assg195
(dp404
g197
(lp405
S'bamd'
p406
assg200
(dp407
g202
(lp408
S'ocok'
p409
asg204
(lp410
S'tuok'
p411
assg206
(dp412
g208
(lp413
S'cooh'
p414
asg211
(lp415
S'cioh'
p416
asg214
(lp417
S'daoh'
p418
asg217
(lp419
S'cloh'
p420
aS'choh'
p421
aS'ecoh'
p422
asg220
(lp423
S'yooh'
p424
asg223
(lp425
S'tooh'
p426
asg226
(lp427
S'akoh'
p428
assg229
(dp429
g231
(lp430
S'slut'
p431
assg234
(dp432
g236
(lp433
S'kcmo'
p434
asg239
(lp435
S'slmo'
p436
assg242
(dp437
g244
(lp438
S'mimn'
p439
asg247
(lp440
S'spmn'
p441
assg250
(dp442
g252
(lp443
S'grmi'
p444
asg255
(lp445
S'flmi'
p446
asg257
(lp447
S'demi'
p448
assg260
(dp449
g236
(lp450
S'kcks'
p451
assg264
(dp452
g266
(lp453
S'luky'
p454
assg269
(dp455
g271
(lp456
S'poor'
p457
asssI1940
(dp458
g2
(dp459
g4
(lp460
S'riva'
p461
asg7
(lp462
S'nova'
p463
assg10
(dp464
g12
(lp465
S'deco'
p466
assg15
(dp467
g17
(lp468
S'lbca'
p469
asg19
(lp470
S'oaca'
p471
asg22
(lp472
S'sdca'
p473
asg24
(lp474
S'laca'
p475
asg27
(lp476
S'sfca'
p477
assg30
(dp478
g32
(lp479
S'bial'
p480
assg35
(dp481
g37
(lp482
S'chil'
p483
aS'ceil'
p484
aS'ncil'
p485
assg40
(dp486
g42
(lp487
S'atga'
p488
assg45
(dp489
g47
(lp490
S'inin'
p491
assg50
(dp492
g52
(lp493
S'dmia'
p494
assg55
(dp495
g57
(lp496
S'brct'
p497
asg60
(lp498
S'nhct'
p499
asg63
(lp500
S'ehct'
p501
aS'hact'
p502
aS'wrct'
p503
assg66
(dp504
g68
(lp505
S'nenj'
p506
asg71
(lp507
S'trnj'
p508
asg74
(lp509
S'jcnj'
p510
asg77
(lp511
S'panj'
p512
assg80
(dp513
g82
(lp514
S'hotx'
p515
asg85
(lp516
S'datx'
p517
asg88
(lp518
S'satx'
p519
asg91
(lp520
S'fwtx'
p521
assg93
(dp522
g95
(lp523
S'nola'
p524
assg98
(dp525
g100
(lp526
S'omne'
p527
assg103
(dp528
g105
(lp529
S'chtn'
p530
asg107
(lp531
S'natn'
p532
asg110
(lp533
S'metn'
p534
assg113
(dp535
g115
(lp536
S'alny'
p537
asg118
(lp538
S'riny'
p539
asg121
(lp540
S'rony'
p541
asg124
(lp542
S'yony'
p543
asg127
(lp544
S'bkny'
p545
asg130
(lp546
S'bxny'
p547
asg133
(lp548
S'syny'
p549
asg136
(lp550
S'buny'
p551
asg139
(lp552
S'many'
p553
asg142
(lp554
S'quny'
p555
assg145
(dp556
g147
(lp557
S'pipa'
p558
asg150
(lp559
S'scpa'
p560
asg153
(lp561
S'phpa'
p562
assg156
(dp563
g158
(lp564
S'epri'
p565
aS'prri'
p566
assg161
(dp567
g163
(lp568
S'sewa'
p569
asg166
(lp570
S'spwa'
p571
assg168
(dp572
g170
(lp573
S'wadc'
p574
assg173
(dp575
g175
(lp576
S'miwi'
p577
aS'smwi'
p578
assg178
(dp579
g180
(lp580
S'boma'
p581
asg183
(lp582
S'woma'
p583
asg186
(lp584
S'spma'
p585
aS'wpma'
p586
assg189
(dp587
g191
(lp588
S'mifl'
p589
aS'mbfl'
p590
asg193
(lp591
S'jafl'
p592
assg195
(dp593
g197
(lp594
S'bamd'
p595
assg200
(dp596
g202
(lp597
S'ocok'
p598
asg204
(lp599
S'tuok'
p600
assg206
(dp601
g208
(lp602
S'cooh'
p603
asg211
(lp604
S'cioh'
p605
asg214
(lp606
S'daoh'
p607
asg217
(lp608
S'cloh'
p609
aS'choh'
p610
aS'ecoh'
p611
asg220
(lp612
S'yooh'
p613
asg223
(lp614
S'tooh'
p615
asg226
(lp616
S'akoh'
p617
assg229
(dp618
g231
(lp619
S'slut'
p620
assg234
(dp621
g236
(lp622
S'kcmo'
p623
asg239
(lp624
S'slmo'
p625
assg242
(dp626
g244
(lp627
S'mimn'
p628
asg247
(lp629
S'spmn'
p630
assg250
(dp631
g252
(lp632
S'grmi'
p633
asg255
(lp634
S'flmi'
p635
asg257
(lp636
S'demi'
p637
aS'edmi'
p638
assg260
(dp639
g236
(lp640
S'kcks'
p641
assg264
(dp642
g266
(lp643
S'loky'
p644
assg269
(dp645
g271
(lp646
S'poor'
p647
asssI1910
(dp648
g2
(dp649
g4
(lp650
S'riva'
p651
asg7
(lp652
S'nova'
p653
assg10
(dp654
g12
(lp655
S'deco'
p656
assg15
(dp657
g17
(lp658
S'lbca'
p659
asg19
(lp660
sg22
(lp661
S'sdca'
p662
asg24
(lp663
S'laca'
p664
asg27
(lp665
S'sfca'
p666
assg30
(dp667
g32
(lp668
S'bial'
p669
assg35
(dp670
g37
(lp671
S'chil'
p672
assg40
(dp673
g42
(lp674
S'a1ga'
p675
assg45
(dp676
g47
(lp677
S'inin'
p678
assg50
(dp679
g52
(lp680
S'dmia'
p681
assg55
(dp682
g57
(lp683
S'brct'
p684
asg60
(lp685
S'nhct'
p686
asg63
(lp687
S'hact'
p688
assg66
(dp689
g68
(lp690
S'nenj'
p691
asg71
(lp692
S'trnj'
p693
asg74
(lp694
S'jcnj'
p695
asg77
(lp696
S'panj'
p697
assg80
(dp698
g82
(lp699
S'hotx'
p700
asg85
(lp701
S'datx'
p702
asg88
(lp703
S'satx'
p704
asg91
(lp705
S'fwtx'
p706
assg93
(dp707
g95
(lp708
S'nola'
p709
assg98
(dp710
g100
(lp711
S'omne'
p712
assg103
(dp713
g105
(lp714
sg107
(lp715
S'natn'
p716
asg110
(lp717
S'metn'
p718
assg113
(dp719
g115
(lp720
S'alny'
p721
asg118
(lp722
S'riny'
p723
asg121
(lp724
S'rony'
p725
asg124
(lp726
S'yony'
p727
asg127
(lp728
S'bkny'
p729
asg130
(lp730
S'bxny'
p731
asg133
(lp732
S'syny'
p733
asg136
(lp734
S'buny'
p735
asg139
(lp736
S'many'
p737
asg142
(lp738
S'quny'
p739
assg145
(dp740
g147
(lp741
S'pipa'
p742
asg150
(lp743
S'scpa'
p744
asg153
(lp745
S'phpa'
p746
assg156
(dp747
g158
(lp748
S'prri'
p749
assg161
(dp750
g163
(lp751
S'sewa'
p752
asg166
(lp753
S'spwa'
p754
assg168
(dp755
g170
(lp756
S'wadc'
p757
assg173
(dp758
g175
(lp759
S'miwi'
p760
assg178
(dp761
g180
(lp762
S'boma'
p763
asg183
(lp764
S'woma'
p765
asg186
(lp766
S'spma'
p767
assg189
(dp768
g191
(lp769
sg193
(lp770
S'afl'
p771
assg195
(dp772
g197
(lp773
S'bamd'
p774
assg200
(dp775
g202
(lp776
S'ocok'
p777
asg204
(lp778
S'tuok'
p779
assg206
(dp780
g208
(lp781
S'cooh'
p782
asg211
(lp783
S'cioh'
p784
asg214
(lp785
S'daoh'
p786
asg217
(lp787
S'cloh'
p788
asg220
(lp789
S'yooh'
p790
asg223
(lp791
S'tooh'
p792
asg226
(lp793
S'akoh'
p794
assg229
(dp795
g231
(lp796
S'slut'
p797
assg234
(dp798
g236
(lp799
S'kcmo'
p800
asg239
(lp801
S'slmo'
p802
assg242
(dp803
g244
(lp804
S'mimn'
p805
asg247
(lp806
S'spmn'
p807
assg250
(dp808
g252
(lp809
S'grmi'
p810
asg255
(lp811
sg257
(lp812
S'demi'
p813
assg260
(dp814
g236
(lp815
S'kcks'
p816
assg264
(dp817
g266
(lp818
S'luky'
p819
assg269
(dp820
g271
(lp821
S'poor'
p822
asss.