(dp0
I1940
(dp1
S'va'
p2
(dp3
S'Richmond'
p4
S'riva'
p5
sS'Norfolk'
p6
S'nova'
p7
ssS'co'
p8
(dp9
S'Denver'
p10
S'deco'
p11
ssS'ca'
p12
(dp13
S'Long Beach'
p14
S'lbca'
p15
sS'Oakland'
p16
S'oaca'
p17
sS'San Diego'
p18
S'sdca'
p19
sS'Los Angeles'
p20
S'laca'
p21
sS'San Francisco'
p22
S'sfca'
p23
ssS'al'
p24
(dp25
S'Birmingham'
p26
S'bial'
p27
ssS'il'
p28
(dp29
S'Springfield'
p30
S'spil'
p31
sS'Chicago'
p32
S'chil'
p33
ssS'ga'
p34
(dp35
S'Atlanta'
p36
S'atga'
p37
ssS'in'
p38
(dp39
S'Indianapolis'
p40
S'inin'
p41
ssS'ia'
p42
(dp43
S'Des Moines'
p44
S'dmia'
p45
ssS'ct'
p46
(dp47
S'Bridgeport'
p48
S'brct'
p49
sS'New Haven'
p50
S'nhct'
p51
sS'Hartford'
p52
S'hact'
p53
ssS'nj'
p54
(dp55
S'Newark'
p56
S'nenj'
p57
sS'Trenton'
p58
S'trnj'
p59
sS'Paterson'
p60
S'panj'
p61
sS'Jersey City'
p62
S'jcnj'
p63
ssS'tx'
p64
(dp65
S'San Antonio'
p66
S'satx'
p67
sS'Houston'
p68
S'hotx'
p69
sS'Fort Worth'
p70
S'fwtx'
p71
sS'Dallas'
p72
S'datx'
p73
ssS'la'
p74
(dp75
S'New Orleans'
p76
S'nola'
p77
ssS'ne'
p78
(dp79
S'Omaha'
p80
S'omne'
p81
ssS'tn'
p82
(dp83
S'Chattanooga'
p84
S'chtn'
p85
sS'Nashville'
p86
S'natn'
p87
sS'Memphis'
p88
S'metn'
p89
ssS'ny'
p90
(dp91
S'Albany'
p92
S'alny'
p93
sS'Staten Island'
p94
S'riny'
p95
sS'Rochester'
p96
S'rony'
p97
sS'Yonkers'
p98
S'yony'
p99
sS'Brooklyn'
p100
S'bkny'
p101
sS'Bronx'
p102
S'bxny'
p103
sS'Queens'
p104
S'quny'
p105
sS'Buffalo'
p106
S'buny'
p107
sS'Manhattan'
p108
S'many'
p109
sS'Syracuse'
p110
S'syny'
p111
ssS'pa'
p112
(dp113
S'Pittsburgh'
p114
S'pipa'
p115
sS'Scranton'
p116
S'scpa'
p117
sS'Philadelphia'
p118
S'phpa'
p119
ssS'ri'
p120
(dp121
S'Providence'
p122
S'prri'
p123
ssS'wa'
p124
(dp125
S'Seattle'
p126
S'sewa'
p127
sS'Spokane'
p128
S'spwa'
p129
ssS'dc'
p130
(dp131
S'Washington'
p132
S'wa" selectedc'
p133
ssS'wi'
p134
(dp135
S'Milwaukee'
p136
S'miwi'
p137
ssS'ok'
p138
(dp139
S'Tulsa'
p140
S'tuok'
p141
ssS'fl'
p142
(dp143
S'Miami'
p144
S'mifl'
p145
sS'Jacksonville'
p146
S'jafl'
p147
ssS'md'
p148
(dp149
S'Baltimore'
p150
S'bamd'
p151
ssS'ma'
p152
(dp153
S'Boston'
p154
S'boma'
p155
sS'Worcester'
p156
S'woma'
p157
ssS'oh'
p158
(dp159
S'Columbus'
p160
S'cooh'
p161
sS'Cincinnati'
p162
S'cioh'
p163
sS'Dayton'
p164
S'daoh'
p165
sS'Cleveland'
p166
S'cloh'
p167
sS'Youngstown'
p168
S'yooh'
p169
sS'Toledo'
p170
S'tooh'
p171
sS'Akron'
p172
S'akoh'
p173
ssS'ut'
p174
(dp175
sS'mo'
p176
(dp177
S'Kansas City'
p178
S'kcmo'
p179
sS'St Louis'
p180
S'slmo'
p181
ssS'mn'
p182
(dp183
S'St Paul'
p184
S'spmn'
p185
sS'Minneapolis'
p186
S'mimn'
p187
ssS'mi'
p188
(dp189
S'Grand Rapids'
p190
S'grmi'
p191
sS'Flint'
p192
S'flmi'
p193
sS'Detroit'
p194
S'demi'
p195
ssS'ks'
p196
(dp197
g178
S'kcks'
p198
ssS'ky'
p199
(dp200
S'Louisville'
p201
S'loky'
p202
ssS'or'
p203
(dp204
S'Portland'
p205
S'poor'
p206
sssI1930
(dp207
g2
(dp208
g4
S'riva'
p209
sg6
S'nova'
p210
ssg8
(dp211
g10
S'deco'
p212
ssg12
(dp213
g14
S'lbca'
p214
sg16
S'oaca'
p215
sg18
S'sdca'
p216
sg22
S'sfca'
p217
ssg24
(dp218
g26
S'bial'
p219
ssg28
(dp220
g30
S'spil'
p221
sg32
S'chil'
p222
ssg34
(dp223
g36
S'a2ga'
p224
ssg38
(dp225
g40
S'inin'
p226
ssg42
(dp227
g44
S'dmia'
p228
ssg46
(dp229
g48
S'brct'
p230
sg50
S'nhct'
p231
sg52
S'hact'
p232
ssg54
(dp233
g56
S'nenj'
p234
sg58
S'trnj'
p235
sg60
S'panj'
p236
sg62
S'jcnj'
p237
ssg64
(dp238
g66
S'satx'
p239
sg68
S'hotx'
p240
sg70
S'fwtx'
p241
sg72
S'datx'
p242
ssg74
(dp243
g76
S'nola'
p244
ssg78
(dp245
g80
S'omne'
p246
ssg82
(dp247
g84
S'chtn'
p248
sg86
S'natn'
p249
sg88
S'metn'
p250
ssg90
(dp251
g92
S'alny'
p252
sg94
S'riny'
p253
sg96
S'rony'
p254
sg98
S'yony'
p255
sg100
S'bkny'
p256
sg102
S'bxny'
p257
sg104
S'quny'
p258
sg106
S'buny'
p259
sg108
S'many'
p260
sg110
S'syny'
p261
ssg112
(dp262
g114
S'pipa'
p263
sg116
S'scpa'
p264
sg118
S'phpa'
p265
ssg120
(dp266
g122
S'prri'
p267
ssg124
(dp268
g126
S'sewa'
p269
sg128
S'spwa'
p270
ssg130
(dp271
g132
S'wadc'
p272
ssg134
(dp273
g136
S'miwi'
p274
ssg138
(dp275
g140
S'tuok'
p276
ssg142
(dp277
g146
S'jafl'
p278
ssg148
(dp279
g150
S'bamd'
p280
ssg152
(dp281
g154
S'boma'
p282
sg156
S'woma'
p283
ssg158
(dp284
g160
S'cooh'
p285
sg162
S'cioh'
p286
sg164
S'daoh'
p287
sg166
S'cloh'
p288
sg168
S'yooh'
p289
sg170
S'tooh'
p290
sg172
S'akoh'
p291
ssg174
(dp292
sg176
(dp293
g178
S'kcmo'
p294
sg180
S'slmo'
p295
ssg182
(dp296
g184
S'spmn'
p297
sg186
S'mimn'
p298
ssg188
(dp299
g190
S'grmi'
p300
sg192
S'flmi'
p301
sg194
S'demi'
p302
ssg196
(dp303
g178
S'kcks'
p304
ssg199
(dp305
g201
S'luky'
p306
ssg203
(dp307
g205
S'poor'
p308
sssI1900
(dp309
g2
(dp310
g4
S'riva'
p311
sg6
S'nova'
p312
ssg8
(dp313
g10
S'deco'
p314
ssg12
(dp315
g22
S'sfca'
p316
sg16
S'oaca'
p317
sg20
S'laca'
p318
ssg24
(dp319
g26
S'bial'
p320
ssg28
(dp321
g32
S'chil'
p322
ssg34
(dp323
g36
S'a1ga'
p324
ssg38
(dp325
g40
S'inin'
p326
ssg42
(dp327
g44
S'dmia'
p328
ssg46
(dp329
g48
S'brct'
p330
sg50
S'nhct'
p331
sg52
S'hact'
p332
ssg54
(dp333
g56
S'nenj'
p334
sg58
S'trnj'
p335
sg60
S'panj'
p336
sg62
S'jcnj'
p337
ssg64
(dp338
g68
S'hotx'
p339
sg66
S'satx'
p340
sg72
S'datx'
p341
ssg74
(dp342
g76
S'nola'
p343
ssg78
(dp344
g80
S'omne'
p345
ssg82
(dp346
g86
S'natn'
p347
sg88
S'metn'
p348
ssg90
(dp349
g92
S'alny'
p350
sg94
S'riny'
p351
sg96
S'rony'
p352
sg98
S'yony'
p353
sg100
S'bkny'
p354
sg102
S'bxny'
p355
sg104
S'quny'
p356
sg106
S'buny'
p357
sg108
S'many'
p358
sg110
S'syny'
p359
ssg112
(dp360
g114
S'pipa'
p361
sg116
S'scpa'
p362
sg118
S'phpa'
p363
ssg120
(dp364
g122
S'prri'
p365
ssg124
(dp366
g126
S'sewa'
p367
ssg130
(dp368
g132
S'wadc'
p369
ssg134
(dp370
g136
S'miwi'
p371
ssg138
(dp372
sg142
(dp373
sg148
(dp374
g150
S'bamd'
p375
ssg152
(dp376
g154
S'boma'
p377
sg156
S'woma'
p378
ssg158
(dp379
g160
S'cooh'
p380
sg162
S'cioh'
p381
sg164
S'daoh'
p382
sg166
S'cloh'
p383
sg168
S'yooh'
p384
sg170
S'tooh'
p385
sg172
S'akoh'
p386
ssg174
(dp387
sg176
(dp388
g178
S'kcmo'
p389
sg180
S'slmo'
p390
ssg182
(dp391
g184
S'spmn'
p392
sg186
S'mimn'
p393
ssg188
(dp394
g190
S'grmi'
p395
sg194
S'demi'
p396
ssg196
(dp397
g178
S'kcks'
p398
ssg199
(dp399
g201
S'luky'
p400
ssg203
(dp401
g205
S'poor'
p402
sssI1910
(dp403
g2
(dp404
g4
S'riva'
p405
sg6
S'nova'
p406
ssg8
(dp407
g10
S'deco'
p408
ssg12
(dp409
g14
S'lbca'
p410
sg18
S'sdca'
p411
sg20
S'laca'
p412
sg22
S'sfca'
p413
ssg24
(dp414
g26
S'bial'
p415
ssg28
(dp416
g32
S'chil'
p417
ssg34
(dp418
g36
S'a1ga'
p419
ssg38
(dp420
g40
S'inin'
p421
ssg42
(dp422
g44
S'dmia'
p423
ssg46
(dp424
g48
S'brct'
p425
sg50
S'nhct'
p426
sg52
S'hact'
p427
ssg54
(dp428
g56
S'nenj'
p429
sg58
S'trnj'
p430
sg60
S'panj'
p431
sg62
S'jcnj'
p432
ssg64
(dp433
g66
S'satx'
p434
sg68
S'hotx'
p435
sg70
S'fwtx'
p436
sg72
S'datx'
p437
ssg74
(dp438
g76
S'nola'
p439
ssg78
(dp440
g80
S'omne'
p441
ssg82
(dp442
g86
S'natn'
p443
sg88
S'metn'
p444
ssg90
(dp445
g92
S'alny'
p446
sg94
S'riny'
p447
sg96
S'rony'
p448
sg98
S'yony'
p449
sg100
S'bkny'
p450
sg102
S'bxny'
p451
sg104
S'quny'
p452
sg106
S'buny'
p453
sg108
S'many'
p454
sg110
S'syny'
p455
ssg112
(dp456
g114
S'pipa'
p457
sg116
S'scpa'
p458
sg118
S'phpa'
p459
ssg120
(dp460
g122
S'prri'
p461
ssg124
(dp462
g126
S'sewa'
p463
sg128
S'spwa'
p464
ssg130
(dp465
g132
S'wadc'
p466
ssg134
(dp467
g136
S'miwi'
p468
ssg138
(dp469
g140
S'tuok'
p470
ssg142
(dp471
g146
S'afl'
p472
ssg148
(dp473
g150
S'bamd'
p474
ssg152
(dp475
g154
S'boma'
p476
sg156
S'woma'
p477
ssg158
(dp478
g160
S'cooh'
p479
sg162
S'cioh'
p480
sg164
S'daoh'
p481
sg166
S'cloh'
p482
sg168
S'yooh'
p483
sg170
S'tooh'
p484
sg172
S'akoh'
p485
ssg174
(dp486
sg176
(dp487
g178
S'kcmo'
p488
sg180
S'slmo'
p489
ssg182
(dp490
g184
S'spmn'
p491
sg186
S'mimn'
p492
ssg188
(dp493
g190
S'grmi'
p494
sg194
S'demi'
p495
ssg196
(dp496
g178
S'kcks'
p497
ssg199
(dp498
g201
S'luky'
p499
ssg203
(dp500
g205
S'poor'
p501
sss.